	.text
	.def	 @feat.00;
	.scl	3;
	.type	0;
	.endef
	.globl	@feat.00
.set @feat.00, 0
	.intel_syntax noprefix
	.file	"efimain.c"
	.def	 ConsoleOutput;
	.scl	2;
	.type	32;
	.endef
	.section	.text,"xr",one_only,ConsoleOutput
	.globl	ConsoleOutput           # -- Begin function ConsoleOutput
	.p2align	4, 0x90
ConsoleOutput:                          # @ConsoleOutput
.Lfunc_begin0:
	.cv_func_id 0
	.cv_file	1 "D:\\Projects\\HelloUefiBmpRes\\efimain.c" "E199F44583A3E08A257A736F4E0D866B" 1
	.cv_loc	0 1 9 0                 # .\efimain.c:9:0
# %bb.0:
	#DEBUG_VALUE: ConsoleOutput:String <- $rcx
	.cv_loc	0 1 10 0                # .\efimain.c:10:0
	mov	rdx, rcx
.Ltmp0:
	#DEBUG_VALUE: ConsoleOutput:String <- $rdx
	mov	rcx, qword ptr [rip + StdOut]
	mov	rax, qword ptr [rcx + 8]
	#DEBUG_VALUE: ConsoleOutput:String <- $rdx
	rex64 jmp	rax             # TAILCALL
.Ltmp1:
.Lfunc_end0:
                                        # -- End function
	.def	 FindBitmapFromImage;
	.scl	2;
	.type	32;
	.endef
	.section	.text,"xr",one_only,FindBitmapFromImage
	.globl	FindBitmapFromImage     # -- Begin function FindBitmapFromImage
	.p2align	4, 0x90
FindBitmapFromImage:                    # @FindBitmapFromImage
.Lfunc_begin1:
	.cv_func_id 1
	.cv_loc	1 1 14 0                # .\efimain.c:14:0
.seh_proc FindBitmapFromImage
# %bb.0:
	#DEBUG_VALUE: FindBitmapFromImage:BitmapData <- $r9
	#DEBUG_VALUE: FindBitmapFromImage:BitmapID <- $r8d
	#DEBUG_VALUE: FindBitmapFromImage:LangID <- $edx
	#DEBUG_VALUE: FindBitmapFromImage:ImageHandle <- $rcx
	push	r15
	.seh_pushreg r15
	push	r14
	.seh_pushreg r14
	push	r13
	.seh_pushreg r13
	push	r12
	.seh_pushreg r12
	push	rsi
	.seh_pushreg rsi
	push	rdi
	.seh_pushreg rdi
	push	rbp
	.seh_pushreg rbp
	push	rbx
	.seh_pushreg rbx
	sub	rsp, 56
	.seh_stackalloc 56
	.seh_endprologue
	mov	rsi, r9
	mov	r15d, r8d
	mov	r13d, edx
.Ltmp2:
	#DEBUG_VALUE: FindBitmapFromImage:LoadedImage <- 0
	#DEBUG_VALUE: FindBitmapFromImage:ImageHandle <- $rcx
	#DEBUG_VALUE: FindBitmapFromImage:LangID <- $r13d
	#DEBUG_VALUE: FindBitmapFromImage:BitmapID <- $r15d
	#DEBUG_VALUE: FindBitmapFromImage:BitmapData <- $rsi
	.cv_loc	1 1 15 0                # .\efimain.c:15:0
	mov	qword ptr [rsp + 40], 0
	.cv_loc	1 1 16 0                # .\efimain.c:16:0
	mov	rax, qword ptr [rip + EfiBoot]
.Ltmp3:
	#DEBUG_VALUE: FindBitmapFromImage:LoadedImage <- [DW_OP_plus_uconst 40, DW_OP_deref] $rsp
	lea	rdx, [rip + EfiLoadedImageGuid]
	lea	r8, [rsp + 40]
	#DEBUG_VALUE: FindBitmapFromImage:ImageHandle <- $rcx
	call	qword ptr [rax + 152]
.Ltmp4:
	#DEBUG_VALUE: FindBitmapFromImage:st <- $rax
	.cv_loc	1 1 17 0                # .\efimain.c:17:0
	test	rax, rax
	jne	.LBB1_19
.Ltmp5:
# %bb.1:
	#DEBUG_VALUE: FindBitmapFromImage:st <- $rax
	#DEBUG_VALUE: FindBitmapFromImage:LoadedImage <- [DW_OP_plus_uconst 40, DW_OP_deref] $rsp
	#DEBUG_VALUE: FindBitmapFromImage:BitmapData <- $rsi
	#DEBUG_VALUE: FindBitmapFromImage:BitmapID <- $r15d
	#DEBUG_VALUE: FindBitmapFromImage:LangID <- $r13d
	.cv_loc	1 1 19 0                # .\efimain.c:19:0
	movabs	rax, -9223372036854775806
.Ltmp6:
	mov	rcx, qword ptr [rsp + 40]
.Ltmp7:
	#DEBUG_VALUE: FindBitmapFromImage:LoadedImage <- $rcx
	mov	r12, qword ptr [rcx + 64]
.Ltmp8:
	#DEBUG_VALUE: DosHead <- $r12
	#DEBUG_VALUE: FindBitmapFromImage:st <- -9223372036854775806
	.cv_loc	1 1 21 0                # .\efimain.c:21:0
	movzx	ecx, word ptr [r12]
.Ltmp9:
	cmp	ecx, 23117
	jne	.LBB1_19
.Ltmp10:
# %bb.2:
	#DEBUG_VALUE: FindBitmapFromImage:st <- -9223372036854775806
	#DEBUG_VALUE: DosHead <- $r12
	#DEBUG_VALUE: FindBitmapFromImage:BitmapData <- $rsi
	#DEBUG_VALUE: FindBitmapFromImage:BitmapID <- $r15d
	#DEBUG_VALUE: FindBitmapFromImage:LangID <- $r13d
	.cv_loc	1 1 26 0                # .\efimain.c:26:0
	mov	ecx, dword ptr [r12 + 60]
.Ltmp11:
	#DEBUG_VALUE: NtHead <- undef
	.cv_loc	1 1 28 0                # .\efimain.c:28:0
	cmp	dword ptr [rcx + r12], 17744
	jne	.LBB1_19
.Ltmp12:
# %bb.3:
	#DEBUG_VALUE: FindBitmapFromImage:st <- -9223372036854775806
	#DEBUG_VALUE: DosHead <- $r12
	#DEBUG_VALUE: FindBitmapFromImage:BitmapData <- $rsi
	#DEBUG_VALUE: FindBitmapFromImage:BitmapID <- $r15d
	#DEBUG_VALUE: FindBitmapFromImage:LangID <- $r13d
	.cv_loc	1 1 30 0                # .\efimain.c:30:0
	mov	r10d, dword ptr [r12 + rcx + 152]
.Ltmp13:
	#DEBUG_VALUE: i <- 0
	#DEBUG_VALUE: ResEntry <- undef
	#DEBUG_VALUE: ResDir <- undef
	#DEBUG_VALUE: ResDirOffset <- undef
	#DEBUG_VALUE: FindBitmapFromImage:st <- -9223372036854775794
	.cv_loc	1 1 34 0                # .\efimain.c:34:0
	movzx	ecx, word ptr [r10 + r12 + 12]
	movzx	edi, word ptr [r10 + r12 + 14]
.Ltmp14:
	add	rax, 12
.Ltmp15:
	add	edi, ecx
	#DEBUG_VALUE: i <- 0
	je	.LBB1_19
.Ltmp16:
# %bb.4:
	#DEBUG_VALUE: FindBitmapFromImage:st <- -9223372036854775794
	#DEBUG_VALUE: i <- 0
	#DEBUG_VALUE: DosHead <- $r12
	#DEBUG_VALUE: FindBitmapFromImage:BitmapData <- $rsi
	#DEBUG_VALUE: FindBitmapFromImage:BitmapID <- $r15d
	#DEBUG_VALUE: FindBitmapFromImage:LangID <- $r13d
	mov	qword ptr [rsp + 48], rsi # 8-byte Spill
.Ltmp17:
	#DEBUG_VALUE: FindBitmapFromImage:BitmapData <- [DW_OP_plus_uconst 48] [$rsp+0]
	lea	r9, [r10 + r12]
	add	r9, 16
	add	r10, r12
.Ltmp18:
	#DEBUG_VALUE: ResEntry <- $r9
	#DEBUG_VALUE: ResDir <- $r10
	xor	esi, esi
	mov	dword ptr [rsp + 36], edi # 4-byte Spill
	jmp	.LBB1_5
.Ltmp19:
	.p2align	4, 0x90
.LBB1_18:                               #   in Loop: Header=BB1_5 Depth=1
	#DEBUG_VALUE: ResDir <- $r10
	#DEBUG_VALUE: ResEntry <- $r9
	#DEBUG_VALUE: FindBitmapFromImage:BitmapData <- [DW_OP_plus_uconst 48] [$rsp+0]
	#DEBUG_VALUE: FindBitmapFromImage:st <- -9223372036854775794
	#DEBUG_VALUE: DosHead <- $r12
	#DEBUG_VALUE: FindBitmapFromImage:BitmapID <- $r15d
	#DEBUG_VALUE: FindBitmapFromImage:LangID <- $r13d
	.cv_loc	1 1 34 0                # .\efimain.c:34:0
	add	esi, 1
.Ltmp20:
	.cv_loc	1 1 34 0                # .\efimain.c:34:0
	movzx	ecx, si
.Ltmp21:
	#DEBUG_VALUE: i <- $ecx
	cmp	edi, ecx
	jbe	.LBB1_19
.Ltmp22:
.LBB1_5:                                # =>This Loop Header: Depth=1
                                        #     Child Loop BB1_9 Depth 2
                                        #       Child Loop BB1_14 Depth 3
	#DEBUG_VALUE: ResDir <- $r10
	#DEBUG_VALUE: ResEntry <- $r9
	#DEBUG_VALUE: FindBitmapFromImage:BitmapData <- [DW_OP_plus_uconst 48] [$rsp+0]
	#DEBUG_VALUE: FindBitmapFromImage:st <- -9223372036854775794
	#DEBUG_VALUE: DosHead <- $r12
	#DEBUG_VALUE: FindBitmapFromImage:BitmapID <- $r15d
	#DEBUG_VALUE: FindBitmapFromImage:LangID <- $r13d
	#DEBUG_VALUE: i <- $si
	.cv_loc	1 1 36 0                # .\efimain.c:36:0
	movzx	esi, si
.Ltmp23:
	cmp	dword ptr [r9 + 8*rsi], 2
	jne	.LBB1_18
.Ltmp24:
# %bb.6:                                #   in Loop: Header=BB1_5 Depth=1
	#DEBUG_VALUE: ResDir <- $r10
	#DEBUG_VALUE: ResEntry <- $r9
	#DEBUG_VALUE: FindBitmapFromImage:BitmapData <- [DW_OP_plus_uconst 48] [$rsp+0]
	#DEBUG_VALUE: FindBitmapFromImage:st <- -9223372036854775794
	#DEBUG_VALUE: DosHead <- $r12
	#DEBUG_VALUE: FindBitmapFromImage:BitmapID <- $r15d
	#DEBUG_VALUE: FindBitmapFromImage:LangID <- $r13d
	mov	ecx, dword ptr [r9 + 8*rsi + 4]
	test	ecx, ecx
	jns	.LBB1_18
.Ltmp25:
# %bb.7:                                #   in Loop: Header=BB1_5 Depth=1
	#DEBUG_VALUE: ResDir <- $r10
	#DEBUG_VALUE: ResEntry <- $r9
	#DEBUG_VALUE: FindBitmapFromImage:BitmapData <- [DW_OP_plus_uconst 48] [$rsp+0]
	#DEBUG_VALUE: FindBitmapFromImage:st <- -9223372036854775794
	#DEBUG_VALUE: DosHead <- $r12
	#DEBUG_VALUE: FindBitmapFromImage:BitmapID <- $r15d
	#DEBUG_VALUE: FindBitmapFromImage:LangID <- $r13d
	.cv_loc	1 1 38 0                # .\efimain.c:38:0
	and	ecx, 2147483647
.Ltmp26:
	#DEBUG_VALUE: j <- 0
	#DEBUG_VALUE: ImgList <- undef
	#DEBUG_VALUE: ImgDir <- undef
	.cv_loc	1 1 40 0                # .\efimain.c:40:0
	movzx	edx, word ptr [r10 + rcx + 12]
	movzx	r11d, word ptr [r10 + rcx + 14]
	add	r11d, edx
	je	.LBB1_18
.Ltmp27:
# %bb.8:                                #   in Loop: Header=BB1_5 Depth=1
	#DEBUG_VALUE: j <- 0
	#DEBUG_VALUE: ResDir <- $r10
	#DEBUG_VALUE: ResEntry <- $r9
	#DEBUG_VALUE: FindBitmapFromImage:BitmapData <- [DW_OP_plus_uconst 48] [$rsp+0]
	#DEBUG_VALUE: FindBitmapFromImage:st <- -9223372036854775794
	#DEBUG_VALUE: DosHead <- $r12
	#DEBUG_VALUE: FindBitmapFromImage:BitmapID <- $r15d
	#DEBUG_VALUE: FindBitmapFromImage:LangID <- $r13d
	lea	r8, [r10 + rcx]
	add	r8, 16
.Ltmp28:
	#DEBUG_VALUE: ImgList <- $r8
	xor	ebp, ebp
	jmp	.LBB1_9
.Ltmp29:
.LBB1_16:                               #   in Loop: Header=BB1_9 Depth=2
	#DEBUG_VALUE: ImgList <- $r8
	#DEBUG_VALUE: ResDir <- $r10
	#DEBUG_VALUE: ResEntry <- $r9
	#DEBUG_VALUE: FindBitmapFromImage:BitmapData <- [DW_OP_plus_uconst 48] [$rsp+0]
	#DEBUG_VALUE: FindBitmapFromImage:st <- -9223372036854775794
	#DEBUG_VALUE: DosHead <- $r12
	#DEBUG_VALUE: FindBitmapFromImage:BitmapID <- $r15d
	#DEBUG_VALUE: FindBitmapFromImage:LangID <- $r13d
	test	r13d, r13d
	mov	edi, dword ptr [rsp + 36] # 4-byte Reload
	jne	.LBB1_18
.Ltmp30:
	.p2align	4, 0x90
.LBB1_17:                               #   in Loop: Header=BB1_9 Depth=2
	#DEBUG_VALUE: ImgList <- $r8
	#DEBUG_VALUE: ResDir <- $r10
	#DEBUG_VALUE: ResEntry <- $r9
	#DEBUG_VALUE: FindBitmapFromImage:BitmapData <- [DW_OP_plus_uconst 48] [$rsp+0]
	#DEBUG_VALUE: FindBitmapFromImage:st <- -9223372036854775794
	#DEBUG_VALUE: DosHead <- $r12
	#DEBUG_VALUE: FindBitmapFromImage:BitmapID <- $r15d
	#DEBUG_VALUE: FindBitmapFromImage:LangID <- $r13d
	.cv_loc	1 1 40 0                # .\efimain.c:40:0
	add	ebp, 1
.Ltmp31:
	.cv_loc	1 1 40 0                # .\efimain.c:40:0
	movzx	ecx, bp
.Ltmp32:
	#DEBUG_VALUE: j <- $ecx
	cmp	r11d, ecx
	jbe	.LBB1_18
.Ltmp33:
.LBB1_9:                                #   Parent Loop BB1_5 Depth=1
                                        # =>  This Loop Header: Depth=2
                                        #       Child Loop BB1_14 Depth 3
	#DEBUG_VALUE: ImgList <- $r8
	#DEBUG_VALUE: ResDir <- $r10
	#DEBUG_VALUE: ResEntry <- $r9
	#DEBUG_VALUE: FindBitmapFromImage:BitmapData <- [DW_OP_plus_uconst 48] [$rsp+0]
	#DEBUG_VALUE: FindBitmapFromImage:st <- -9223372036854775794
	#DEBUG_VALUE: DosHead <- $r12
	#DEBUG_VALUE: FindBitmapFromImage:BitmapID <- $r15d
	#DEBUG_VALUE: FindBitmapFromImage:LangID <- $r13d
	#DEBUG_VALUE: j <- $bp
	.cv_loc	1 1 42 0                # .\efimain.c:42:0
	movzx	ebp, bp
.Ltmp34:
	cmp	dword ptr [r8 + 8*rbp], r15d
	jne	.LBB1_17
.Ltmp35:
# %bb.10:                               #   in Loop: Header=BB1_9 Depth=2
	#DEBUG_VALUE: ImgList <- $r8
	#DEBUG_VALUE: ResDir <- $r10
	#DEBUG_VALUE: ResEntry <- $r9
	#DEBUG_VALUE: FindBitmapFromImage:BitmapData <- [DW_OP_plus_uconst 48] [$rsp+0]
	#DEBUG_VALUE: FindBitmapFromImage:st <- -9223372036854775794
	#DEBUG_VALUE: DosHead <- $r12
	#DEBUG_VALUE: FindBitmapFromImage:BitmapID <- $r15d
	#DEBUG_VALUE: FindBitmapFromImage:LangID <- $r13d
	cmp	dword ptr [r8 + 8*rsi + 4], 0
	jns	.LBB1_17
.Ltmp36:
# %bb.11:                               #   in Loop: Header=BB1_9 Depth=2
	#DEBUG_VALUE: ImgList <- $r8
	#DEBUG_VALUE: ResDir <- $r10
	#DEBUG_VALUE: ResEntry <- $r9
	#DEBUG_VALUE: FindBitmapFromImage:BitmapData <- [DW_OP_plus_uconst 48] [$rsp+0]
	#DEBUG_VALUE: FindBitmapFromImage:st <- -9223372036854775794
	#DEBUG_VALUE: DosHead <- $r12
	#DEBUG_VALUE: FindBitmapFromImage:BitmapID <- $r15d
	#DEBUG_VALUE: FindBitmapFromImage:LangID <- $r13d
	.cv_loc	1 1 44 0                # .\efimain.c:44:0
	mov	ecx, dword ptr [r8 + 8*rbp + 4]
	and	ecx, 2147483647
.Ltmp37:
	#DEBUG_VALUE: k <- 0
	#DEBUG_VALUE: LangList <- undef
	#DEBUG_VALUE: LangDir <- undef
	.cv_loc	1 1 46 0                # .\efimain.c:46:0
	movzx	ebx, word ptr [r10 + rcx + 12]
	movzx	edx, word ptr [r10 + rcx + 14]
	add	edx, ebx
	je	.LBB1_16
.Ltmp38:
# %bb.12:                               #   in Loop: Header=BB1_9 Depth=2
	#DEBUG_VALUE: k <- 0
	#DEBUG_VALUE: ImgList <- $r8
	#DEBUG_VALUE: ResDir <- $r10
	#DEBUG_VALUE: ResEntry <- $r9
	#DEBUG_VALUE: FindBitmapFromImage:BitmapData <- [DW_OP_plus_uconst 48] [$rsp+0]
	#DEBUG_VALUE: FindBitmapFromImage:st <- -9223372036854775794
	#DEBUG_VALUE: DosHead <- $r12
	#DEBUG_VALUE: FindBitmapFromImage:BitmapID <- $r15d
	#DEBUG_VALUE: FindBitmapFromImage:LangID <- $r13d
	add	rcx, r10
	add	rcx, 16
.Ltmp39:
	#DEBUG_VALUE: LangList <- $rcx
	xor	ebx, ebx
.Ltmp40:
	.p2align	4, 0x90
.LBB1_14:                               #   Parent Loop BB1_5 Depth=1
                                        #     Parent Loop BB1_9 Depth=2
                                        # =>    This Inner Loop Header: Depth=3
	#DEBUG_VALUE: LangList <- $rcx
	#DEBUG_VALUE: ImgList <- $r8
	#DEBUG_VALUE: ResDir <- $r10
	#DEBUG_VALUE: ResEntry <- $r9
	#DEBUG_VALUE: FindBitmapFromImage:BitmapData <- [DW_OP_plus_uconst 48] [$rsp+0]
	#DEBUG_VALUE: FindBitmapFromImage:st <- -9223372036854775794
	#DEBUG_VALUE: DosHead <- $r12
	#DEBUG_VALUE: FindBitmapFromImage:BitmapID <- $r15d
	#DEBUG_VALUE: FindBitmapFromImage:LangID <- $r13d
	#DEBUG_VALUE: k <- $bx
	.cv_loc	1 1 48 0                # .\efimain.c:48:0
	movzx	r14d, bx
	cmp	dword ptr [rcx + 8*r14], r13d
.Ltmp41:
	#DEBUG_VALUE: k <- undef
	je	.LBB1_15
.Ltmp42:
# %bb.13:                               #   in Loop: Header=BB1_14 Depth=3
	#DEBUG_VALUE: k <- $bx
	#DEBUG_VALUE: LangList <- $rcx
	#DEBUG_VALUE: ImgList <- $r8
	#DEBUG_VALUE: ResDir <- $r10
	#DEBUG_VALUE: ResEntry <- $r9
	#DEBUG_VALUE: FindBitmapFromImage:BitmapData <- [DW_OP_plus_uconst 48] [$rsp+0]
	#DEBUG_VALUE: FindBitmapFromImage:st <- -9223372036854775794
	#DEBUG_VALUE: DosHead <- $r12
	#DEBUG_VALUE: FindBitmapFromImage:BitmapID <- $r15d
	#DEBUG_VALUE: FindBitmapFromImage:LangID <- $r13d
	.cv_loc	1 1 46 0                # .\efimain.c:46:0
	add	ebx, 1
.Ltmp43:
	#DEBUG_VALUE: k <- $bx
	movzx	edi, bx
	cmp	edx, edi
	ja	.LBB1_14
	jmp	.LBB1_16
.Ltmp44:
.LBB1_15:
	#DEBUG_VALUE: k <- $bx
	#DEBUG_VALUE: LangList <- $rcx
	#DEBUG_VALUE: ImgList <- $r8
	#DEBUG_VALUE: ResDir <- $r10
	#DEBUG_VALUE: ResEntry <- $r9
	#DEBUG_VALUE: FindBitmapFromImage:BitmapData <- [DW_OP_plus_uconst 48] [$rsp+0]
	#DEBUG_VALUE: FindBitmapFromImage:st <- -9223372036854775794
	#DEBUG_VALUE: DosHead <- $r12
	#DEBUG_VALUE: FindBitmapFromImage:BitmapID <- $r15d
	#DEBUG_VALUE: FindBitmapFromImage:LangID <- $r13d
	.cv_loc	1 1 50 0                # .\efimain.c:50:0
	mov	eax, dword ptr [rcx + 8*r14 + 4]
.Ltmp45:
	#DEBUG_VALUE: ImageEntry <- undef
	.cv_loc	1 1 51 0                # .\efimain.c:51:0
	mov	eax, dword ptr [r10 + rax]
	add	rax, r12
	mov	rcx, qword ptr [rsp + 48] # 8-byte Reload
.Ltmp46:
	#DEBUG_VALUE: FindBitmapFromImage:BitmapData <- $rcx
	mov	qword ptr [rcx], rax
	xor	eax, eax
.Ltmp47:
	#DEBUG_VALUE: FindBitmapFromImage:st <- -9223372036854775794
.LBB1_19:
	#DEBUG_VALUE: FindBitmapFromImage:BitmapID <- $r15d
	#DEBUG_VALUE: FindBitmapFromImage:LangID <- $r13d
	.cv_loc	1 1 64 0                # .\efimain.c:64:0
	add	rsp, 56
	pop	rbx
	pop	rbp
	pop	rdi
	pop	rsi
	pop	r12
	pop	r13
.Ltmp48:
	pop	r14
	pop	r15
.Ltmp49:
	ret
.Ltmp50:
.Lfunc_end1:
	.seh_handlerdata
	.section	.text,"xr",one_only,FindBitmapFromImage
	.seh_endproc
                                        # -- End function
	.def	 ChooseGraphicMode;
	.scl	2;
	.type	32;
	.endef
	.section	.text,"xr",one_only,ChooseGraphicMode
	.globl	ChooseGraphicMode       # -- Begin function ChooseGraphicMode
	.p2align	4, 0x90
ChooseGraphicMode:                      # @ChooseGraphicMode
.Lfunc_begin2:
	.cv_func_id 2
	.cv_loc	2 1 67 0                # .\efimain.c:67:0
.seh_proc ChooseGraphicMode
# %bb.0:
	#DEBUG_VALUE: ChooseGraphicMode:Vertical <- $edx
	#DEBUG_VALUE: ChooseGraphicMode:Horizontal <- $ecx
	push	r15
	.seh_pushreg r15
	push	r14
	.seh_pushreg r14
	push	r12
	.seh_pushreg r12
	push	rsi
	.seh_pushreg rsi
	push	rdi
	.seh_pushreg rdi
	push	rbp
	.seh_pushreg rbp
	push	rbx
	.seh_pushreg rbx
	sub	rsp, 48
	.seh_stackalloc 48
	.seh_endprologue
	mov	r15d, ecx
.Ltmp51:
	#DEBUG_VALUE: i <- 0
	#DEBUG_VALUE: ChooseGraphicMode:Index <- -1
	#DEBUG_VALUE: ChooseGraphicMode:Horizontal <- $r15d
	#DEBUG_VALUE: ChooseGraphicMode:Vertical <- $edx
	.cv_loc	2 1 69 0                # .\efimain.c:69:0
	mov	rcx, qword ptr [rip + GraphicsOutput]
	mov	rax, qword ptr [rcx + 24]
	cmp	dword ptr [rax], 0
	je	.LBB2_1
.Ltmp52:
# %bb.3:
	#DEBUG_VALUE: ChooseGraphicMode:Horizontal <- $r15d
	#DEBUG_VALUE: ChooseGraphicMode:Index <- -1
	#DEBUG_VALUE: i <- 0
	#DEBUG_VALUE: ChooseGraphicMode:Vertical <- $edx
	mov	r14d, edx
.Ltmp53:
	#DEBUG_VALUE: ChooseGraphicMode:Vertical <- $r14d
	xor	ebp, ebp
	mov	ebx, -1
	lea	rsi, [rsp + 40]
	lea	rdi, [rsp + 32]
	lea	r12, [rip + "??_C@_1DI@OIAGNBDD@?$AAM?$AAo?$AAd?$AAe?$AA?$DN?$AA?$CF?$AAd?$AA?5?$AAR?$AAe?$AAs?$AAo?$AAl?$AAu?$AAt?$AAi?$AAo?$AAn?$AA?3?$AA?5?$AA?$CF?$AAd?$AAx?$AA?$CF?$AAd?$AA?$AN?$AA?6?$AA?$AA@"]
	jmp	.LBB2_4
.Ltmp54:
	.p2align	4, 0x90
.LBB2_7:                                #   in Loop: Header=BB2_4 Depth=1
	#DEBUG_VALUE: i <- $ebp
	#DEBUG_VALUE: ChooseGraphicMode:Vertical <- $r14d
	#DEBUG_VALUE: ChooseGraphicMode:Horizontal <- $r15d
	#DEBUG_VALUE: ChooseGraphicMode:Index <- $ebx
	.cv_loc	2 1 69 0                # .\efimain.c:69:0
	add	ebp, 1
.Ltmp55:
	#DEBUG_VALUE: i <- $ebp
	.cv_loc	2 1 69 0                # .\efimain.c:69:0
	mov	rcx, qword ptr [rip + GraphicsOutput]
	mov	rax, qword ptr [rcx + 24]
	cmp	ebp, dword ptr [rax]
	jae	.LBB2_2
.Ltmp56:
.LBB2_4:                                # =>This Inner Loop Header: Depth=1
	#DEBUG_VALUE: ChooseGraphicMode:Vertical <- $r14d
	#DEBUG_VALUE: ChooseGraphicMode:Horizontal <- $r15d
	#DEBUG_VALUE: ChooseGraphicMode:Index <- $ebx
	#DEBUG_VALUE: i <- $ebp
	#DEBUG_VALUE: InfoSize <- 0
	.cv_loc	2 1 71 0                # .\efimain.c:71:0
	mov	qword ptr [rsp + 40], 0
.Ltmp57:
	#DEBUG_VALUE: ModeInfo <- 0
	.cv_loc	2 1 72 0                # .\efimain.c:72:0
	mov	qword ptr [rsp + 32], 0
.Ltmp58:
	#DEBUG_VALUE: ModeInfo <- [DW_OP_plus_uconst 32, DW_OP_deref] $rsp
	#DEBUG_VALUE: InfoSize <- [DW_OP_plus_uconst 40, DW_OP_deref] $rsp
	.cv_loc	2 1 73 0                # .\efimain.c:73:0
	mov	edx, ebp
	mov	r8, rsi
	mov	r9, rdi
	call	qword ptr [rcx]
.Ltmp59:
	#DEBUG_VALUE: st <- $rax
	.cv_loc	2 1 74 0                # .\efimain.c:74:0
	test	rax, rax
	jne	.LBB2_7
.Ltmp60:
# %bb.5:                                #   in Loop: Header=BB2_4 Depth=1
	#DEBUG_VALUE: st <- $rax
	#DEBUG_VALUE: InfoSize <- [DW_OP_plus_uconst 40, DW_OP_deref] $rsp
	#DEBUG_VALUE: ModeInfo <- [DW_OP_plus_uconst 32, DW_OP_deref] $rsp
	#DEBUG_VALUE: i <- $ebp
	#DEBUG_VALUE: ChooseGraphicMode:Index <- $ebx
	#DEBUG_VALUE: ChooseGraphicMode:Vertical <- $r14d
	#DEBUG_VALUE: ChooseGraphicMode:Horizontal <- $r15d
	.cv_loc	2 1 76 0                # .\efimain.c:76:0
	mov	rax, qword ptr [rsp + 32]
.Ltmp61:
	#DEBUG_VALUE: ModeInfo <- $rax
	mov	r8d, dword ptr [rax + 4]
	mov	r9d, dword ptr [rax + 8]
	mov	rcx, r12
	mov	edx, ebp
	call	ConsolePrintfW
.Ltmp62:
	.cv_loc	2 1 77 0                # .\efimain.c:77:0
	mov	rax, qword ptr [rsp + 32]
.Ltmp63:
	#DEBUG_VALUE: ModeInfo <- $rax
	cmp	dword ptr [rax + 4], r15d
	jne	.LBB2_7
.Ltmp64:
# %bb.6:                                #   in Loop: Header=BB2_4 Depth=1
	#DEBUG_VALUE: ModeInfo <- $rax
	#DEBUG_VALUE: InfoSize <- [DW_OP_plus_uconst 40, DW_OP_deref] $rsp
	#DEBUG_VALUE: i <- $ebp
	#DEBUG_VALUE: ChooseGraphicMode:Index <- $ebx
	#DEBUG_VALUE: ChooseGraphicMode:Vertical <- $r14d
	#DEBUG_VALUE: ChooseGraphicMode:Horizontal <- $r15d
	cmp	dword ptr [rax + 8], r14d
	cmove	ebx, ebp
.Ltmp65:
	jmp	.LBB2_7
.Ltmp66:
.LBB2_1:
	#DEBUG_VALUE: ChooseGraphicMode:Horizontal <- $r15d
	#DEBUG_VALUE: ChooseGraphicMode:Index <- -1
	#DEBUG_VALUE: i <- 0
	#DEBUG_VALUE: ChooseGraphicMode:Vertical <- $edx
	mov	ebx, -1
.Ltmp67:
.LBB2_2:
	#DEBUG_VALUE: ChooseGraphicMode:Horizontal <- $r15d
	#DEBUG_VALUE: ChooseGraphicMode:Index <- $ebx
	.cv_loc	2 1 80 0                # .\efimain.c:80:0
	mov	eax, ebx
	add	rsp, 48
	pop	rbx
.Ltmp68:
	pop	rbp
	pop	rdi
	pop	rsi
	pop	r12
	pop	r14
	pop	r15
.Ltmp69:
	ret
.Ltmp70:
.Lfunc_end2:
	.seh_handlerdata
	.section	.text,"xr",one_only,ChooseGraphicMode
	.seh_endproc
                                        # -- End function
	.def	 BlockUntilKeyStroke;
	.scl	2;
	.type	32;
	.endef
	.section	.text,"xr",one_only,BlockUntilKeyStroke
	.globl	BlockUntilKeyStroke     # -- Begin function BlockUntilKeyStroke
	.p2align	4, 0x90
BlockUntilKeyStroke:                    # @BlockUntilKeyStroke
.Lfunc_begin3:
	.cv_func_id 3
	.cv_loc	3 1 84 0                # .\efimain.c:84:0
.seh_proc BlockUntilKeyStroke
# %bb.0:
	#DEBUG_VALUE: BlockUntilKeyStroke:Unicode <- $cx
	push	rsi
	.seh_pushreg rsi
	push	rdi
	.seh_pushreg rdi
	push	rbx
	.seh_pushreg rbx
	sub	rsp, 48
	.seh_stackalloc 48
	.seh_endprologue
	mov	esi, ecx
.Ltmp71:
	#DEBUG_VALUE: BlockUntilKeyStroke:Unicode <- $si
	lea	rdi, [rsp + 40]
	lea	rbx, [rsp + 32]
.Ltmp72:
	.p2align	4, 0x90
.LBB3_1:                                # =>This Inner Loop Header: Depth=1
	#DEBUG_VALUE: BlockUntilKeyStroke:Unicode <- $si
	#DEBUG_VALUE: fi <- 0
	.cv_loc	3 1 88 0                # .\efimain.c:88:0
	mov	qword ptr [rsp + 40], 0
	.cv_loc	3 1 89 0                # .\efimain.c:89:0
	mov	rax, qword ptr [rip + EfiBoot]
	mov	rdx, qword ptr [rip + StdIn]
	add	rdx, 16
.Ltmp73:
	#DEBUG_VALUE: fi <- [DW_OP_plus_uconst 40, DW_OP_deref] $rsp
	mov	ecx, 1
	mov	r8, rdi
	call	qword ptr [rax + 96]
	.cv_loc	3 1 90 0                # .\efimain.c:90:0
	mov	rcx, qword ptr [rip + StdIn]
	mov	rdx, rbx
	call	qword ptr [rcx + 8]
	.cv_loc	3 1 91 0                # .\efimain.c:91:0
	cmp	word ptr [rsp + 34], si
	jne	.LBB3_1
.Ltmp74:
# %bb.2:
	#DEBUG_VALUE: BlockUntilKeyStroke:Unicode <- $si
	.cv_loc	3 1 92 0                # .\efimain.c:92:0
	add	rsp, 48
	pop	rbx
	pop	rdi
	pop	rsi
.Ltmp75:
	ret
.Ltmp76:
.Lfunc_end3:
	.seh_handlerdata
	.section	.text,"xr",one_only,BlockUntilKeyStroke
	.seh_endproc
                                        # -- End function
	.def	 SetBiggestConsole;
	.scl	2;
	.type	32;
	.endef
	.section	.text,"xr",one_only,SetBiggestConsole
	.globl	SetBiggestConsole       # -- Begin function SetBiggestConsole
	.p2align	4, 0x90
SetBiggestConsole:                      # @SetBiggestConsole
.Lfunc_begin4:
	.cv_func_id 4
	.cv_loc	4 1 95 0                # .\efimain.c:95:0
.seh_proc SetBiggestConsole
# %bb.0:
	push	r15
	.seh_pushreg r15
	push	r14
	.seh_pushreg r14
	push	r12
	.seh_pushreg r12
	push	rsi
	.seh_pushreg rsi
	push	rdi
	.seh_pushreg rdi
	push	rbp
	.seh_pushreg rbp
	push	rbx
	.seh_pushreg rbx
	sub	rsp, 48
	.seh_stackalloc 48
	.seh_endprologue
.Ltmp77:
	#DEBUG_VALUE: SetBiggestConsole:MaxRow <- 0
	#DEBUG_VALUE: SetBiggestConsole:MaxCol <- 0
	#DEBUG_VALUE: SetBiggestConsole:MaxIndex <- 0
	#DEBUG_VALUE: i <- 0
	.cv_loc	4 1 98 0                # .\efimain.c:98:0
	mov	rcx, qword ptr [rip + StdOut]
	mov	rax, qword ptr [rcx + 72]
	cmp	dword ptr [rax], 0
	je	.LBB4_1
.Ltmp78:
# %bb.3:
	#DEBUG_VALUE: i <- 0
	#DEBUG_VALUE: SetBiggestConsole:MaxIndex <- 0
	#DEBUG_VALUE: SetBiggestConsole:MaxCol <- 0
	#DEBUG_VALUE: SetBiggestConsole:MaxRow <- 0
	xor	edi, edi
	lea	r14, [rsp + 32]
	lea	r15, [rsp + 40]
	xor	r12d, r12d
	xor	esi, esi
	xor	ebx, ebx
	jmp	.LBB4_4
.Ltmp79:
	.p2align	4, 0x90
.LBB4_5:                                #   in Loop: Header=BB4_4 Depth=1
	#DEBUG_VALUE: Row <- $rbp
	#DEBUG_VALUE: Col <- [DW_OP_plus_uconst 32, DW_OP_deref] $rsp
	#DEBUG_VALUE: i <- $rdi
	#DEBUG_VALUE: SetBiggestConsole:MaxIndex <- $r12d
	#DEBUG_VALUE: SetBiggestConsole:MaxCol <- $rsi
	#DEBUG_VALUE: SetBiggestConsole:MaxRow <- $rbx
	.cv_loc	4 1 104 0               # .\efimain.c:104:0
	mov	rsi, qword ptr [rsp + 32]
.Ltmp80:
	#DEBUG_VALUE: Col <- $rsi
	#DEBUG_VALUE: SetBiggestConsole:MaxIndex <- $rdi
	#DEBUG_VALUE: SetBiggestConsole:MaxCol <- $rsi
	#DEBUG_VALUE: SetBiggestConsole:MaxRow <- $rbp
	mov	r12d, edi
	#DEBUG_VALUE: Col <- $rsi
.Ltmp81:
.LBB4_9:                                #   in Loop: Header=BB4_4 Depth=1
	#DEBUG_VALUE: SetBiggestConsole:MaxRow <- $rbp
	#DEBUG_VALUE: i <- $rdi
	#DEBUG_VALUE: SetBiggestConsole:MaxRow <- $rbp
	#DEBUG_VALUE: SetBiggestConsole:MaxCol <- $rsi
	#DEBUG_VALUE: SetBiggestConsole:MaxIndex <- $r12d
	.cv_loc	4 1 98 0                # .\efimain.c:98:0
	add	rdi, 1
.Ltmp82:
	#DEBUG_VALUE: i <- $rdi
	.cv_loc	4 1 98 0                # .\efimain.c:98:0
	mov	rcx, qword ptr [rip + StdOut]
	mov	rax, qword ptr [rcx + 72]
	mov	eax, dword ptr [rax]
	mov	rbx, rbp
	cmp	rdi, rax
	jae	.LBB4_2
.Ltmp83:
.LBB4_4:                                # =>This Inner Loop Header: Depth=1
	#DEBUG_VALUE: SetBiggestConsole:MaxRow <- $rbx
	#DEBUG_VALUE: SetBiggestConsole:MaxCol <- $rsi
	#DEBUG_VALUE: SetBiggestConsole:MaxIndex <- $r12d
	#DEBUG_VALUE: i <- $rdi
	#DEBUG_VALUE: Row <- 0
	.cv_loc	4 1 100 0               # .\efimain.c:100:0
	mov	qword ptr [rsp + 40], 0
.Ltmp84:
	#DEBUG_VALUE: Col <- 0
	mov	qword ptr [rsp + 32], 0
.Ltmp85:
	#DEBUG_VALUE: Col <- [DW_OP_plus_uconst 32, DW_OP_deref] $rsp
	#DEBUG_VALUE: Row <- [DW_OP_plus_uconst 40, DW_OP_deref] $rsp
	.cv_loc	4 1 101 0               # .\efimain.c:101:0
	mov	rdx, rdi
	mov	r8, r14
	mov	r9, r15
	call	qword ptr [rcx + 24]
	.cv_loc	4 1 102 0               # .\efimain.c:102:0
	mov	rbp, qword ptr [rsp + 40]
.Ltmp86:
	#DEBUG_VALUE: Row <- $rbp
	cmp	rbp, rbx
	ja	.LBB4_5
.Ltmp87:
# %bb.6:                                #   in Loop: Header=BB4_4 Depth=1
	#DEBUG_VALUE: Row <- $rbp
	#DEBUG_VALUE: Col <- [DW_OP_plus_uconst 32, DW_OP_deref] $rsp
	#DEBUG_VALUE: i <- $rdi
	#DEBUG_VALUE: SetBiggestConsole:MaxIndex <- $r12d
	#DEBUG_VALUE: SetBiggestConsole:MaxCol <- $rsi
	#DEBUG_VALUE: SetBiggestConsole:MaxRow <- $rbx
	.cv_loc	4 1 108 0               # .\efimain.c:108:0
	jne	.LBB4_8
.Ltmp88:
# %bb.7:                                #   in Loop: Header=BB4_4 Depth=1
	#DEBUG_VALUE: Row <- $rbp
	#DEBUG_VALUE: Col <- [DW_OP_plus_uconst 32, DW_OP_deref] $rsp
	#DEBUG_VALUE: i <- $rdi
	#DEBUG_VALUE: SetBiggestConsole:MaxIndex <- $r12d
	#DEBUG_VALUE: SetBiggestConsole:MaxCol <- $rsi
	#DEBUG_VALUE: SetBiggestConsole:MaxRow <- $rbx
	mov	rax, qword ptr [rsp + 32]
.Ltmp89:
	#DEBUG_VALUE: Col <- $rax
	cmp	rax, rsi
	cmova	rsi, rax
.Ltmp90:
	cmova	r12d, edi
.Ltmp91:
.LBB4_8:                                #   in Loop: Header=BB4_4 Depth=1
	#DEBUG_VALUE: Row <- $rbp
	#DEBUG_VALUE: i <- $rdi
	#DEBUG_VALUE: SetBiggestConsole:MaxRow <- $rbx
	mov	rbp, rbx
.Ltmp92:
	#DEBUG_VALUE: SetBiggestConsole:MaxRow <- $rbp
	jmp	.LBB4_9
.Ltmp93:
.LBB4_1:
	#DEBUG_VALUE: i <- 0
	#DEBUG_VALUE: SetBiggestConsole:MaxIndex <- 0
	#DEBUG_VALUE: SetBiggestConsole:MaxCol <- 0
	#DEBUG_VALUE: SetBiggestConsole:MaxRow <- 0
	xor	ebp, ebp
	xor	esi, esi
	xor	r12d, r12d
.Ltmp94:
.LBB4_2:
	#DEBUG_VALUE: SetBiggestConsole:MaxRow <- $rbp
	#DEBUG_VALUE: SetBiggestConsole:MaxCol <- $rsi
	#DEBUG_VALUE: SetBiggestConsole:MaxIndex <- $r12d
	.cv_loc	4 1 114 0               # .\efimain.c:114:0
	mov	edx, 15
	call	qword ptr [rcx + 40]
	.cv_loc	4 1 115 0               # .\efimain.c:115:0
	mov	rcx, qword ptr [rip + StdOut]
	mov	edx, r12d
	call	qword ptr [rcx + 32]
	.cv_loc	4 1 116 0               # .\efimain.c:116:0
	lea	rcx, [rip + "??_C@_1DI@KNBDDLDL@?$AAC?$AAo?$AAn?$AAs?$AAo?$AAl?$AAe?$AA?5?$AAR?$AAe?$AAs?$AAo?$AAl?$AAu?$AAt?$AAi?$AAo?$AAn?$AA?3?$AA?5?$AA?$CF?$AAd?$AAx?$AA?$CF?$AAd?$AA?$AN?$AA?6?$AA?$AA@"]
	mov	rdx, rsi
	mov	r8, rbp
	call	ConsolePrintfW
	.cv_loc	4 1 117 0               # .\efimain.c:117:0
	nop
	add	rsp, 48
	pop	rbx
	pop	rbp
.Ltmp95:
	pop	rdi
	pop	rsi
.Ltmp96:
	pop	r12
.Ltmp97:
	pop	r14
	pop	r15
	ret
.Ltmp98:
.Lfunc_end4:
	.seh_handlerdata
	.section	.text,"xr",one_only,SetBiggestConsole
	.seh_endproc
                                        # -- End function
	.def	 EfiInit;
	.scl	2;
	.type	32;
	.endef
	.section	.text,"xr",one_only,EfiInit
	.globl	EfiInit                 # -- Begin function EfiInit
	.p2align	4, 0x90
EfiInit:                                # @EfiInit
.Lfunc_begin5:
	.cv_func_id 5
	.cv_loc	5 1 120 0               # .\efimain.c:120:0
.seh_proc EfiInit
# %bb.0:
	#DEBUG_VALUE: EfiInit:SystemTable <- $rcx
	#DEBUG_VALUE: EfiInit:SystemTable <- $rcx
	push	r15
	.seh_pushreg r15
	push	r14
	.seh_pushreg r14
	push	r13
	.seh_pushreg r13
	push	r12
	.seh_pushreg r12
	push	rsi
	.seh_pushreg rsi
	push	rdi
	.seh_pushreg rdi
	push	rbp
	.seh_pushreg rbp
	push	rbx
	.seh_pushreg rbx
	sub	rsp, 56
	.seh_stackalloc 56
	.seh_endprologue
.Ltmp99:
	#DEBUG_VALUE: EfiInit:st <- 0
	.cv_loc	5 1 122 0               # .\efimain.c:122:0
	mov	rax, qword ptr [rcx + 96]
	mov	qword ptr [rip + EfiBoot], rax
	.cv_loc	5 1 123 0               # .\efimain.c:123:0
	mov	rdx, qword ptr [rcx + 48]
	mov	qword ptr [rip + StdIn], rdx
	.cv_loc	5 1 124 0               # .\efimain.c:124:0
	mov	rdx, qword ptr [rcx + 64]
	mov	qword ptr [rip + StdOut], rdx
	.cv_loc	5 1 125 0               # .\efimain.c:125:0
	mov	rcx, qword ptr [rcx + 80]
.Ltmp100:
	mov	qword ptr [rip + StdErr], rcx
	.cv_loc	5 1 126 0               # .\efimain.c:126:0
	lea	rcx, [rip + EfiGraphicsOutputGuid]
	lea	r8, [rip + GraphicsOutput]
	xor	ebp, ebp
	xor	edx, edx
	call	qword ptr [rax + 320]
	mov	r14, rax
.Ltmp101:
	#DEBUG_VALUE: EfiInit:st <- $r14
	.cv_loc	5 1 127 0               # .\efimain.c:127:0
	test	rax, rax
	jne	.LBB5_11
.Ltmp102:
# %bb.1:
	#DEBUG_VALUE: EfiInit:st <- $r14
	.cv_loc	5 1 128 0               # .\efimain.c:128:0
	mov	rax, qword ptr [rip + EfiBoot]
	lea	rcx, [rip + EfiUnicodeCollationGuid]
	lea	r8, [rip + UnicodeCollation]
	xor	edx, edx
	call	qword ptr [rax + 320]
	mov	r14, rax
.Ltmp103:
	#DEBUG_VALUE: i <- 0
	#DEBUG_VALUE: SetBiggestConsole:MaxIndex <- 0
	#DEBUG_VALUE: SetBiggestConsole:MaxCol <- 0
	#DEBUG_VALUE: SetBiggestConsole:MaxRow <- 0
	#DEBUG_VALUE: EfiInit:st <- $r14
	.cv_inline_site_id 6 within 5 inlined_at 1 129 0
	.cv_loc	6 1 98 0                # .\efimain.c:98:0
	mov	rcx, qword ptr [rip + StdOut]
	mov	rax, qword ptr [rcx + 72]
	cmp	dword ptr [rax], 0
	je	.LBB5_2
.Ltmp104:
# %bb.3:
	#DEBUG_VALUE: SetBiggestConsole:MaxRow <- 0
	#DEBUG_VALUE: SetBiggestConsole:MaxCol <- 0
	#DEBUG_VALUE: SetBiggestConsole:MaxIndex <- 0
	#DEBUG_VALUE: i <- 0
	#DEBUG_VALUE: EfiInit:st <- $r14
	xor	esi, esi
	lea	r15, [rsp + 40]
	lea	r12, [rsp + 48]
	xor	r13d, r13d
	xor	ebx, ebx
	xor	edi, edi
	jmp	.LBB5_4
.Ltmp105:
	.p2align	4, 0x90
.LBB5_5:                                #   in Loop: Header=BB5_4 Depth=1
	#DEBUG_VALUE: Row <- $rbp
	#DEBUG_VALUE: Col <- [DW_OP_plus_uconst 40, DW_OP_deref] $rsp
	#DEBUG_VALUE: i <- $rsi
	#DEBUG_VALUE: SetBiggestConsole:MaxIndex <- $r13d
	#DEBUG_VALUE: SetBiggestConsole:MaxCol <- $rbx
	#DEBUG_VALUE: SetBiggestConsole:MaxRow <- $rdi
	#DEBUG_VALUE: EfiInit:st <- $r14
	.cv_loc	6 1 104 0               # .\efimain.c:104:0
	mov	rbx, qword ptr [rsp + 40]
.Ltmp106:
	#DEBUG_VALUE: Col <- $rbx
	#DEBUG_VALUE: SetBiggestConsole:MaxIndex <- $rsi
	#DEBUG_VALUE: SetBiggestConsole:MaxCol <- $rbx
	#DEBUG_VALUE: SetBiggestConsole:MaxRow <- $rbp
	mov	r13d, esi
	#DEBUG_VALUE: Col <- $rbx
.Ltmp107:
.LBB5_9:                                #   in Loop: Header=BB5_4 Depth=1
	#DEBUG_VALUE: SetBiggestConsole:MaxRow <- $rbp
	#DEBUG_VALUE: i <- $rsi
	#DEBUG_VALUE: EfiInit:st <- $r14
	#DEBUG_VALUE: SetBiggestConsole:MaxRow <- $rbp
	#DEBUG_VALUE: SetBiggestConsole:MaxCol <- $rbx
	#DEBUG_VALUE: SetBiggestConsole:MaxIndex <- $r13d
	.cv_loc	6 1 98 0                # .\efimain.c:98:0
	add	rsi, 1
.Ltmp108:
	#DEBUG_VALUE: i <- $rsi
	.cv_loc	6 1 98 0                # .\efimain.c:98:0
	mov	rcx, qword ptr [rip + StdOut]
	mov	rax, qword ptr [rcx + 72]
	mov	eax, dword ptr [rax]
	mov	rdi, rbp
	cmp	rsi, rax
	jae	.LBB5_10
.Ltmp109:
.LBB5_4:                                # =>This Inner Loop Header: Depth=1
	#DEBUG_VALUE: EfiInit:st <- $r14
	#DEBUG_VALUE: SetBiggestConsole:MaxRow <- $rdi
	#DEBUG_VALUE: SetBiggestConsole:MaxCol <- $rbx
	#DEBUG_VALUE: SetBiggestConsole:MaxIndex <- $r13d
	#DEBUG_VALUE: i <- $rsi
	#DEBUG_VALUE: Row <- 0
	.cv_loc	6 1 100 0               # .\efimain.c:100:0
	mov	qword ptr [rsp + 48], 0
.Ltmp110:
	#DEBUG_VALUE: Col <- 0
	mov	qword ptr [rsp + 40], 0
.Ltmp111:
	#DEBUG_VALUE: Col <- [DW_OP_plus_uconst 40, DW_OP_deref] $rsp
	#DEBUG_VALUE: Row <- [DW_OP_plus_uconst 48, DW_OP_deref] $rsp
	.cv_loc	6 1 101 0               # .\efimain.c:101:0
	mov	rdx, rsi
	mov	r8, r15
	mov	r9, r12
	call	qword ptr [rcx + 24]
	.cv_loc	6 1 102 0               # .\efimain.c:102:0
	mov	rbp, qword ptr [rsp + 48]
.Ltmp112:
	#DEBUG_VALUE: Row <- $rbp
	cmp	rbp, rdi
	ja	.LBB5_5
.Ltmp113:
# %bb.6:                                #   in Loop: Header=BB5_4 Depth=1
	#DEBUG_VALUE: Row <- $rbp
	#DEBUG_VALUE: Col <- [DW_OP_plus_uconst 40, DW_OP_deref] $rsp
	#DEBUG_VALUE: i <- $rsi
	#DEBUG_VALUE: SetBiggestConsole:MaxIndex <- $r13d
	#DEBUG_VALUE: SetBiggestConsole:MaxCol <- $rbx
	#DEBUG_VALUE: SetBiggestConsole:MaxRow <- $rdi
	#DEBUG_VALUE: EfiInit:st <- $r14
	.cv_loc	6 1 108 0               # .\efimain.c:108:0
	jne	.LBB5_8
.Ltmp114:
# %bb.7:                                #   in Loop: Header=BB5_4 Depth=1
	#DEBUG_VALUE: Row <- $rbp
	#DEBUG_VALUE: Col <- [DW_OP_plus_uconst 40, DW_OP_deref] $rsp
	#DEBUG_VALUE: i <- $rsi
	#DEBUG_VALUE: SetBiggestConsole:MaxIndex <- $r13d
	#DEBUG_VALUE: SetBiggestConsole:MaxCol <- $rbx
	#DEBUG_VALUE: SetBiggestConsole:MaxRow <- $rdi
	#DEBUG_VALUE: EfiInit:st <- $r14
	mov	rax, qword ptr [rsp + 40]
.Ltmp115:
	#DEBUG_VALUE: Col <- $rax
	cmp	rax, rbx
	cmova	rbx, rax
.Ltmp116:
	cmova	r13d, esi
.Ltmp117:
.LBB5_8:                                #   in Loop: Header=BB5_4 Depth=1
	#DEBUG_VALUE: Row <- $rbp
	#DEBUG_VALUE: i <- $rsi
	#DEBUG_VALUE: SetBiggestConsole:MaxRow <- $rdi
	#DEBUG_VALUE: EfiInit:st <- $r14
	mov	rbp, rdi
.Ltmp118:
	#DEBUG_VALUE: SetBiggestConsole:MaxRow <- $rbp
	jmp	.LBB5_9
.Ltmp119:
.LBB5_2:
	#DEBUG_VALUE: SetBiggestConsole:MaxRow <- 0
	#DEBUG_VALUE: SetBiggestConsole:MaxCol <- 0
	#DEBUG_VALUE: SetBiggestConsole:MaxIndex <- 0
	#DEBUG_VALUE: i <- 0
	#DEBUG_VALUE: EfiInit:st <- $r14
	xor	ebx, ebx
	xor	r13d, r13d
.Ltmp120:
.LBB5_10:
	#DEBUG_VALUE: EfiInit:st <- $r14
	#DEBUG_VALUE: SetBiggestConsole:MaxRow <- $rbp
	#DEBUG_VALUE: SetBiggestConsole:MaxCol <- $rbx
	#DEBUG_VALUE: SetBiggestConsole:MaxIndex <- $r13d
	.cv_loc	6 1 114 0               # .\efimain.c:114:0
	mov	edx, 15
	call	qword ptr [rcx + 40]
	.cv_loc	6 1 115 0               # .\efimain.c:115:0
	mov	rcx, qword ptr [rip + StdOut]
	mov	edx, r13d
	call	qword ptr [rcx + 32]
	.cv_loc	6 1 116 0               # .\efimain.c:116:0
	lea	rcx, [rip + "??_C@_1DI@KNBDDLDL@?$AAC?$AAo?$AAn?$AAs?$AAo?$AAl?$AAe?$AA?5?$AAR?$AAe?$AAs?$AAo?$AAl?$AAu?$AAt?$AAi?$AAo?$AAn?$AA?3?$AA?5?$AA?$CF?$AAd?$AAx?$AA?$CF?$AAd?$AA?$AN?$AA?6?$AA?$AA@"]
	mov	rdx, rbx
	mov	r8, rbp
	call	ConsolePrintfW
.Ltmp121:
.LBB5_11:
	#DEBUG_VALUE: EfiInit:st <- $r14
	.cv_loc	5 1 131 0               # .\efimain.c:131:0
	mov	rax, r14
	add	rsp, 56
	pop	rbx
	pop	rbp
	pop	rdi
	pop	rsi
	pop	r12
	pop	r13
	pop	r14
.Ltmp122:
	pop	r15
	ret
.Ltmp123:
.Lfunc_end5:
	.seh_handlerdata
	.section	.text,"xr",one_only,EfiInit
	.seh_endproc
                                        # -- End function
	.def	 EfiMain;
	.scl	2;
	.type	32;
	.endef
	.section	.text,"xr",one_only,EfiMain
	.globl	EfiMain                 # -- Begin function EfiMain
	.p2align	4, 0x90
EfiMain:                                # @EfiMain
.Lfunc_begin6:
	.cv_func_id 7
	.cv_loc	7 1 134 0               # .\efimain.c:134:0
.seh_proc EfiMain
# %bb.0:
	#DEBUG_VALUE: EfiMain:SystemTable <- $rdx
	#DEBUG_VALUE: EfiMain:ImageHandle <- $rcx
	push	r15
	.seh_pushreg r15
	push	r14
	.seh_pushreg r14
	push	r13
	.seh_pushreg r13
	push	r12
	.seh_pushreg r12
	push	rsi
	.seh_pushreg rsi
	push	rdi
	.seh_pushreg rdi
	push	rbp
	.seh_pushreg rbp
	push	rbx
	.seh_pushreg rbx
	sub	rsp, 104
	.seh_stackalloc 104
	.seh_endprologue
	mov	rdi, rcx
.Ltmp124:
	#DEBUG_VALUE: EfiMain:ImageHandle <- $rdi
	#DEBUG_VALUE: EfiMain:SystemTable <- $rdx
	.cv_loc	7 1 136 0               # .\efimain.c:136:0
	mov	rcx, rdx
.Ltmp125:
	#DEBUG_VALUE: EfiMain:SystemTable <- $rcx
	call	EfiInit
.Ltmp126:
	mov	rsi, rax
.Ltmp127:
	#DEBUG_VALUE: EfiMain:st <- $rsi
	.cv_loc	7 1 137 0               # .\efimain.c:137:0
	test	rax, rax
	jne	.LBB6_28
.Ltmp128:
# %bb.1:
	#DEBUG_VALUE: EfiMain:st <- $rsi
	#DEBUG_VALUE: EfiMain:ImageHandle <- $rdi
	#DEBUG_VALUE: BmpData <- 0
	.cv_loc	7 1 139 0               # .\efimain.c:139:0
	mov	qword ptr [rsp + 96], 0
.Ltmp129:
	#DEBUG_VALUE: BmpData <- [DW_OP_plus_uconst 96, DW_OP_deref] $rsp
	lea	r9, [rsp + 96]
	.cv_loc	7 1 141 0               # .\efimain.c:141:0
	mov	rcx, rdi
	mov	edx, 2052
	mov	r8d, 102
	call	FindBitmapFromImage
	mov	rsi, rax
.Ltmp130:
	#DEBUG_VALUE: EfiMain:st <- $rsi
	.cv_loc	7 1 142 0               # .\efimain.c:142:0
	test	rax, rax
	je	.LBB6_2
.Ltmp131:
.LBB6_28:
	#DEBUG_VALUE: EfiMain:st <- $rsi
	#DEBUG_VALUE: EfiMain:st <- $rsi
	#DEBUG_VALUE: BlockUntilKeyStroke:Unicode <- 13
	lea	rdi, [rsp + 80]
	lea	rbx, [rsp + 88]
.Ltmp132:
	.p2align	4, 0x90
.LBB6_29:                               # =>This Inner Loop Header: Depth=1
	#DEBUG_VALUE: BlockUntilKeyStroke:Unicode <- 13
	#DEBUG_VALUE: EfiMain:st <- $rsi
	#DEBUG_VALUE: fi <- 0
	.cv_inline_site_id 8 within 7 inlined_at 1 214 0
	.cv_loc	8 1 88 0                # .\efimain.c:88:0
	mov	qword ptr [rsp + 80], 0
	.cv_loc	8 1 89 0                # .\efimain.c:89:0
	mov	rax, qword ptr [rip + EfiBoot]
	mov	rdx, qword ptr [rip + StdIn]
	add	rdx, 16
.Ltmp133:
	#DEBUG_VALUE: fi <- [DW_OP_plus_uconst 80, DW_OP_deref] $rsp
	mov	ecx, 1
	mov	r8, rdi
	call	qword ptr [rax + 96]
	.cv_loc	8 1 90 0                # .\efimain.c:90:0
	mov	rcx, qword ptr [rip + StdIn]
	mov	rdx, rbx
	call	qword ptr [rcx + 8]
	.cv_loc	8 1 91 0                # .\efimain.c:91:0
	cmp	word ptr [rsp + 90], 13
	jne	.LBB6_29
.Ltmp134:
.LBB6_25:
	.cv_loc	7 1 216 0               # .\efimain.c:216:0
	mov	rax, rsi
	add	rsp, 104
	pop	rbx
	pop	rbp
	pop	rdi
	pop	rsi
	pop	r12
	pop	r13
	pop	r14
	pop	r15
	ret
.LBB6_2:
.Ltmp135:
	#DEBUG_VALUE: BmpData <- [DW_OP_plus_uconst 96, DW_OP_deref] $rsp
	#DEBUG_VALUE: EfiMain:st <- $rsi
	#DEBUG_VALUE: EfiMain:ImageHandle <- $rdi
	.cv_loc	7 1 145 0               # .\efimain.c:145:0
	mov	r13, qword ptr [rsp + 96]
.Ltmp136:
	#DEBUG_VALUE: BmpData <- $r13
	mov	edi, dword ptr [r13 + 4]
.Ltmp137:
	mov	r15d, dword ptr [r13 + 8]
.Ltmp138:
	#DEBUG_VALUE: i <- 0
	#DEBUG_VALUE: ChooseGraphicMode:Index <- -1
	#DEBUG_VALUE: ChooseGraphicMode:Vertical <- $r15d
	#DEBUG_VALUE: ChooseGraphicMode:Horizontal <- $edi
	.cv_inline_site_id 9 within 7 inlined_at 1 145 0
	.cv_loc	9 1 69 0                # .\efimain.c:69:0
	mov	rcx, qword ptr [rip + GraphicsOutput]
	mov	rax, qword ptr [rcx + 24]
	cmp	dword ptr [rax], 0
	je	.LBB6_3
.Ltmp139:
# %bb.4:
	#DEBUG_VALUE: ChooseGraphicMode:Horizontal <- $edi
	#DEBUG_VALUE: ChooseGraphicMode:Vertical <- $r15d
	#DEBUG_VALUE: ChooseGraphicMode:Index <- -1
	#DEBUG_VALUE: i <- 0
	#DEBUG_VALUE: BmpData <- $r13
	#DEBUG_VALUE: EfiMain:st <- $rsi
	xor	ebp, ebp
	mov	r14d, -1
	lea	rsi, [rsp + 80]
.Ltmp140:
	lea	rbx, [rsp + 88]
	lea	r12, [rip + "??_C@_1DI@OIAGNBDD@?$AAM?$AAo?$AAd?$AAe?$AA?$DN?$AA?$CF?$AAd?$AA?5?$AAR?$AAe?$AAs?$AAo?$AAl?$AAu?$AAt?$AAi?$AAo?$AAn?$AA?3?$AA?5?$AA?$CF?$AAd?$AAx?$AA?$CF?$AAd?$AA?$AN?$AA?6?$AA?$AA@"]
	jmp	.LBB6_5
.Ltmp141:
	.p2align	4, 0x90
.LBB6_8:                                #   in Loop: Header=BB6_5 Depth=1
	#DEBUG_VALUE: i <- $ebp
	#DEBUG_VALUE: ChooseGraphicMode:Horizontal <- $edi
	#DEBUG_VALUE: ChooseGraphicMode:Vertical <- $r15d
	#DEBUG_VALUE: BmpData <- $r13
	#DEBUG_VALUE: ChooseGraphicMode:Index <- $r14d
	.cv_loc	9 1 69 0                # .\efimain.c:69:0
	add	ebp, 1
.Ltmp142:
	#DEBUG_VALUE: i <- $ebp
	.cv_loc	9 1 69 0                # .\efimain.c:69:0
	mov	rcx, qword ptr [rip + GraphicsOutput]
	mov	rax, qword ptr [rcx + 24]
	cmp	ebp, dword ptr [rax]
	jae	.LBB6_9
.Ltmp143:
.LBB6_5:                                # =>This Inner Loop Header: Depth=1
	#DEBUG_VALUE: ChooseGraphicMode:Horizontal <- $edi
	#DEBUG_VALUE: ChooseGraphicMode:Vertical <- $r15d
	#DEBUG_VALUE: BmpData <- $r13
	#DEBUG_VALUE: ChooseGraphicMode:Index <- $r14d
	#DEBUG_VALUE: i <- $ebp
	#DEBUG_VALUE: InfoSize <- 0
	.cv_loc	9 1 71 0                # .\efimain.c:71:0
	mov	qword ptr [rsp + 80], 0
.Ltmp144:
	#DEBUG_VALUE: ModeInfo <- 0
	.cv_loc	9 1 72 0                # .\efimain.c:72:0
	mov	qword ptr [rsp + 88], 0
.Ltmp145:
	#DEBUG_VALUE: ModeInfo <- [DW_OP_plus_uconst 88, DW_OP_deref] $rsp
	#DEBUG_VALUE: InfoSize <- [DW_OP_plus_uconst 80, DW_OP_deref] $rsp
	.cv_loc	9 1 73 0                # .\efimain.c:73:0
	mov	edx, ebp
	mov	r8, rsi
	mov	r9, rbx
	call	qword ptr [rcx]
.Ltmp146:
	#DEBUG_VALUE: st <- $rax
	.cv_loc	9 1 74 0                # .\efimain.c:74:0
	test	rax, rax
	jne	.LBB6_8
.Ltmp147:
# %bb.6:                                #   in Loop: Header=BB6_5 Depth=1
	#DEBUG_VALUE: st <- $rax
	#DEBUG_VALUE: InfoSize <- [DW_OP_plus_uconst 80, DW_OP_deref] $rsp
	#DEBUG_VALUE: ModeInfo <- [DW_OP_plus_uconst 88, DW_OP_deref] $rsp
	#DEBUG_VALUE: i <- $ebp
	#DEBUG_VALUE: ChooseGraphicMode:Index <- $r14d
	#DEBUG_VALUE: ChooseGraphicMode:Horizontal <- $edi
	#DEBUG_VALUE: ChooseGraphicMode:Vertical <- $r15d
	#DEBUG_VALUE: BmpData <- $r13
	.cv_loc	9 1 76 0                # .\efimain.c:76:0
	mov	rax, qword ptr [rsp + 88]
.Ltmp148:
	#DEBUG_VALUE: ModeInfo <- $rax
	mov	r8d, dword ptr [rax + 4]
	mov	r9d, dword ptr [rax + 8]
	mov	rcx, r12
	mov	edx, ebp
	call	ConsolePrintfW
.Ltmp149:
	.cv_loc	9 1 77 0                # .\efimain.c:77:0
	mov	rax, qword ptr [rsp + 88]
.Ltmp150:
	#DEBUG_VALUE: ModeInfo <- $rax
	cmp	dword ptr [rax + 4], edi
	jne	.LBB6_8
.Ltmp151:
# %bb.7:                                #   in Loop: Header=BB6_5 Depth=1
	#DEBUG_VALUE: ModeInfo <- $rax
	#DEBUG_VALUE: InfoSize <- [DW_OP_plus_uconst 80, DW_OP_deref] $rsp
	#DEBUG_VALUE: i <- $ebp
	#DEBUG_VALUE: ChooseGraphicMode:Index <- $r14d
	#DEBUG_VALUE: ChooseGraphicMode:Horizontal <- $edi
	#DEBUG_VALUE: ChooseGraphicMode:Vertical <- $r15d
	#DEBUG_VALUE: BmpData <- $r13
	cmp	dword ptr [rax + 8], r15d
	cmove	r14d, ebp
.Ltmp152:
	jmp	.LBB6_8
.Ltmp153:
.LBB6_9:
	#DEBUG_VALUE: BmpData <- $r13
	.cv_loc	7 1 146 0               # .\efimain.c:146:0
	mov	edi, dword ptr [r13 + 4]
	mov	r15d, dword ptr [r13 + 8]
	jmp	.LBB6_10
.Ltmp154:
.LBB6_3:
	#DEBUG_VALUE: ChooseGraphicMode:Horizontal <- $edi
	#DEBUG_VALUE: ChooseGraphicMode:Vertical <- $r15d
	#DEBUG_VALUE: ChooseGraphicMode:Index <- -1
	#DEBUG_VALUE: i <- 0
	#DEBUG_VALUE: BmpData <- $r13
	#DEBUG_VALUE: EfiMain:st <- $rsi
	mov	r14d, -1
.Ltmp155:
.LBB6_10:
	#DEBUG_VALUE: BmpData <- $r13
	#DEBUG_VALUE: BmpData <- $r13
	#DEBUG_VALUE: Mode <- $r14d
	lea	rcx, [rip + "??_C@_1EI@BFDIABFG@?$AAL?$AAo?$AAc?$AAa?$AAt?$AAe?$AAd?$AA?5?$AAB?$AAi?$AAt?$AAm?$AAa?$AAp?$AA?$CB?$AA?5?$AAI?$AAm?$AAa?$AAg?$AAe?$AA?5?$AAS?$AAi?$AAz?$AAe?$AA?3?$AA?5?$AA?$CF?$AAd?$AAx?$AA?$CF@"]
	mov	edx, edi
	mov	r8d, r15d
	call	ConsolePrintfW
	.cv_loc	7 1 148 0               # .\efimain.c:148:0
	cmp	dword ptr [r13 + 16], 0
	je	.LBB6_12
.Ltmp156:
# %bb.11:
	#DEBUG_VALUE: Mode <- $r14d
	#DEBUG_VALUE: BmpData <- $r13
	.cv_inline_site_id 10 within 7 inlined_at 1 150 0
	.cv_loc	10 1 10 0               # .\efimain.c:10:0
	mov	rcx, qword ptr [rip + StdOut]
	lea	rdx, [rip + "??_C@_1FO@OGPDCNAH@?$AAB?$AAi?$AAt?$AAm?$AAa?$AAp?$AA?5?$AAC?$AAo?$AAm?$AAp?$AAr?$AAe?$AAs?$AAs?$AAi?$AAo?$AAn?$AA?5?$AAA?$AAl?$AAg?$AAo?$AAr?$AAi?$AAt?$AAh?$AAm?$AA?5?$AAi?$AAs?$AA?5@"]
.Ltmp157:
	#DEBUG_VALUE: ConsoleOutput:String <- $rdx
	jmp	.LBB6_22
.Ltmp158:
.LBB6_12:
	#DEBUG_VALUE: Mode <- $r14d
	#DEBUG_VALUE: BmpData <- $r13
	.cv_loc	7 1 154 0               # .\efimain.c:154:0
	cmp	word ptr [r13 + 14], 24
	jne	.LBB6_13
.Ltmp159:
# %bb.14:
	#DEBUG_VALUE: Mode <- $r14d
	#DEBUG_VALUE: BmpData <- $r13
	.cv_loc	7 1 160 0               # .\efimain.c:160:0
	cmp	r14d, -1
	je	.LBB6_21
.Ltmp160:
# %bb.15:
	#DEBUG_VALUE: Mode <- $r14d
	#DEBUG_VALUE: BmpData <- $r13
	.cv_loc	7 1 161 0               # .\efimain.c:161:0
	lea	rcx, [rip + "??_C@_1EO@BKJDOKCI@?$AAW?$AAe?$AA?5?$AAw?$AAi?$AAl?$AAl?$AA?5?$AAu?$AAs?$AAe?$AA?5?$AAG?$AAr?$AAa?$AAp?$AAh?$AAi?$AAc?$AAs?$AA?5?$AAO?$AAu?$AAt?$AAp?$AAu?$AAt?$AA?5?$AAM?$AAo?$AAd?$AAe@"]
	mov	edx, r14d
	call	ConsolePrintfW
.Ltmp161:
	.cv_inline_site_id 11 within 7 inlined_at 1 171 0
	.cv_loc	11 1 10 0               # .\efimain.c:10:0
	mov	rcx, qword ptr [rip + StdOut]
	lea	rdx, [rip + "??_C@_1EC@GHGLIHMM@?$AAP?$AAr?$AAe?$AAs?$AAs?$AA?5?$AAE?$AAn?$AAt?$AAe?$AAr?$AA?5?$AAk?$AAe?$AAy?$AA?5?$AAt?$AAo?$AA?5?$AAc?$AAo?$AAn?$AAt?$AAi?$AAn?$AAu?$AAe?$AA?4?$AA?4?$AA?4?$AA?$AN?$AA?6@"]
.Ltmp162:
	#DEBUG_VALUE: ConsoleOutput:String <- $rdx
	call	qword ptr [rcx + 8]
.Ltmp163:
	#DEBUG_VALUE: BlockUntilKeyStroke:Unicode <- 13
	lea	rsi, [rsp + 80]
	lea	rdi, [rsp + 88]
.Ltmp164:
	.p2align	4, 0x90
.LBB6_16:                               # =>This Inner Loop Header: Depth=1
	#DEBUG_VALUE: BlockUntilKeyStroke:Unicode <- 13
	#DEBUG_VALUE: Mode <- $r14d
	#DEBUG_VALUE: BmpData <- $r13
	#DEBUG_VALUE: fi <- 0
	.cv_inline_site_id 12 within 7 inlined_at 1 172 0
	.cv_loc	12 1 88 0               # .\efimain.c:88:0
	mov	qword ptr [rsp + 80], 0
	.cv_loc	12 1 89 0               # .\efimain.c:89:0
	mov	rax, qword ptr [rip + EfiBoot]
	mov	rdx, qword ptr [rip + StdIn]
	add	rdx, 16
.Ltmp165:
	#DEBUG_VALUE: fi <- [DW_OP_plus_uconst 80, DW_OP_deref] $rsp
	mov	ecx, 1
	mov	r8, rsi
	call	qword ptr [rax + 96]
	.cv_loc	12 1 90 0               # .\efimain.c:90:0
	mov	rcx, qword ptr [rip + StdIn]
	mov	rdx, rdi
	call	qword ptr [rcx + 8]
	.cv_loc	12 1 91 0               # .\efimain.c:91:0
	cmp	word ptr [rsp + 90], 13
	jne	.LBB6_16
.Ltmp166:
# %bb.17:
	#DEBUG_VALUE: Mode <- $r14d
	#DEBUG_VALUE: BmpData <- $r13
	.cv_loc	7 1 174 0               # .\efimain.c:174:0
	mov	rcx, qword ptr [rip + GraphicsOutput]
	mov	edx, r14d
	call	qword ptr [rcx + 8]
	mov	rsi, rax
.Ltmp167:
	#DEBUG_VALUE: EfiMain:st <- $rsi
	.cv_loc	7 1 175 0               # .\efimain.c:175:0
	test	rax, rax
	jne	.LBB6_28
.Ltmp168:
# %bb.18:
	#DEBUG_VALUE: Mode <- $r14d
	#DEBUG_VALUE: BmpData <- $r13
	#DEBUG_VALUE: EfiMain:st <- $rsi
	#DEBUG_VALUE: BltBuffer <- 0
	.cv_loc	7 1 178 0               # .\efimain.c:178:0
	mov	qword ptr [rsp + 80], 0
	.cv_loc	7 1 179 0               # .\efimain.c:179:0
	mov	rax, qword ptr [rip + EfiBoot]
	#DEBUG_VALUE: BmpData <- $r13
	mov	edx, dword ptr [r13 + 8]
	imul	edx, dword ptr [r13 + 4]
	shl	rdx, 2
.Ltmp169:
	#DEBUG_VALUE: BltBuffer <- [DW_OP_plus_uconst 80, DW_OP_deref] $rsp
	lea	r8, [rsp + 80]
	mov	ecx, 2
	call	qword ptr [rax + 64]
	mov	rsi, rax
.Ltmp170:
	#DEBUG_VALUE: EfiMain:st <- $rsi
	.cv_loc	7 1 180 0               # .\efimain.c:180:0
	test	rax, rax
	jne	.LBB6_28
.Ltmp171:
# %bb.19:
	#DEBUG_VALUE: BltBuffer <- [DW_OP_plus_uconst 80, DW_OP_deref] $rsp
	#DEBUG_VALUE: Mode <- $r14d
	#DEBUG_VALUE: BmpData <- $r13
	#DEBUG_VALUE: EfiMain:st <- $rsi
	#DEBUG_VALUE: BmpData <- $r13
	.cv_loc	7 1 185 0               # .\efimain.c:185:0
	mov	edx, dword ptr [r13 + 4]
.Ltmp172:
	#DEBUG_VALUE: BmpPixels <- undef
	mov	ebp, dword ptr [r13 + 8]
.Ltmp173:
	#DEBUG_VALUE: i <- [DW_OP_constu 1, DW_OP_minus, DW_OP_stack_value] $ebp
	mov	ecx, ebp
	add	ecx, -1
.Ltmp174:
	#DEBUG_VALUE: i <- $ecx
	je	.LBB6_20
.Ltmp175:
# %bb.30:
	#DEBUG_VALUE: i <- $ecx
	#DEBUG_VALUE: BltBuffer <- [DW_OP_plus_uconst 80, DW_OP_deref] $rsp
	#DEBUG_VALUE: Mode <- $r14d
	#DEBUG_VALUE: BmpData <- $r13
	#DEBUG_VALUE: EfiMain:st <- $rsi
	.cv_loc	7 1 193 0               # .\efimain.c:193:0
	mov	r8d, dword ptr [r13]
	add	r8, r13
.Ltmp176:
	#DEBUG_VALUE: BmpPixels <- $r8
	mov	ebx, edx
	mov	eax, ebp
	jmp	.LBB6_31
.Ltmp177:
.LBB6_13:
	#DEBUG_VALUE: Mode <- $r14d
	#DEBUG_VALUE: BmpData <- $r13
	.cv_inline_site_id 13 within 7 inlined_at 1 156 0
	.cv_loc	13 1 10 0               # .\efimain.c:10:0
	mov	rcx, qword ptr [rip + StdOut]
	lea	rdx, [rip + "??_C@_1GK@FHILJBFM@?$AAO?$AAn?$AAl?$AAy?$AA?5?$AA2?$AA4?$AA?9?$AAb?$AAi?$AAt?$AA?5?$AAT?$AAr?$AAu?$AAe?$AA?9?$AAC?$AAo?$AAl?$AAo?$AAr?$AA?5?$AAF?$AAo?$AAr?$AAm?$AAa?$AAt?$AA?5?$AAB?$AAi@"]
.Ltmp178:
	#DEBUG_VALUE: ConsoleOutput:String <- $rdx
	jmp	.LBB6_22
.Ltmp179:
.LBB6_32:                               #   in Loop: Header=BB6_31 Depth=1
	#DEBUG_VALUE: m <- 0
	#DEBUG_VALUE: BmpPixels <- $r8
	#DEBUG_VALUE: i <- $ecx
	#DEBUG_VALUE: Mode <- $r14d
	#DEBUG_VALUE: BmpData <- $r13
	xor	ebx, ebx
.Ltmp180:
.LBB6_26:                               #   in Loop: Header=BB6_31 Depth=1
	#DEBUG_VALUE: BmpPixels <- $r8
	#DEBUG_VALUE: Mode <- $r14d
	#DEBUG_VALUE: BmpData <- $r13
	.cv_loc	7 1 185 0               # .\efimain.c:185:0
	mov	ecx, eax
.Ltmp181:
	mov	ebp, dword ptr [r13 + 8]
.Ltmp182:
	add	ecx, -1
.Ltmp183:
	#DEBUG_VALUE: i <- $ecx
	je	.LBB6_27
.Ltmp184:
.LBB6_31:                               # =>This Loop Header: Depth=1
                                        #     Child Loop BB6_34 Depth 2
	#DEBUG_VALUE: BmpPixels <- $r8
	#DEBUG_VALUE: i <- $ecx
	#DEBUG_VALUE: Mode <- $r14d
	#DEBUG_VALUE: BmpData <- $r13
	.cv_loc	7 1 193 0               # .\efimain.c:193:0
	mov	edi, eax
	mov	eax, ecx
.Ltmp185:
	#DEBUG_VALUE: m <- 0
	#DEBUG_VALUE: HoriPixels <- undef
	#DEBUG_VALUE: j <- undef
	#DEBUG_VALUE: BmpData <- $r13
	test	ebx, ebx
	je	.LBB6_32
.Ltmp186:
# %bb.33:                               #   in Loop: Header=BB6_31 Depth=1
	#DEBUG_VALUE: m <- 0
	#DEBUG_VALUE: BmpPixels <- $r8
	#DEBUG_VALUE: i <- $ecx
	#DEBUG_VALUE: Mode <- $r14d
	#DEBUG_VALUE: BmpData <- $r13
	sub	ebp, edi
.Ltmp187:
	#DEBUG_VALUE: j <- $ebp
	imul	ebp, ebx
.Ltmp188:
	lea	ecx, [rbp + 2*rbp]
.Ltmp189:
	mov	ebp, ebx
	and	ebp, 3
	add	rbp, r8
	add	rbp, rcx
.Ltmp190:
	#DEBUG_VALUE: HoriPixels <- $rbp
	xor	edi, edi
	xor	esi, esi
	mov	edx, ebx
.Ltmp191:
	.p2align	4, 0x90
.LBB6_34:                               #   Parent Loop BB6_31 Depth=1
                                        # =>  This Inner Loop Header: Depth=2
	#DEBUG_VALUE: HoriPixels <- $rbp
	#DEBUG_VALUE: BmpPixels <- $r8
	#DEBUG_VALUE: Mode <- $r14d
	#DEBUG_VALUE: BmpData <- $r13
	#DEBUG_VALUE: m <- $rsi
	.cv_loc	7 1 197 0               # .\efimain.c:197:0
	imul	edx, eax
	add	edx, esi
	.cv_loc	7 1 199 0               # .\efimain.c:199:0
	mov	ecx, edi
	movzx	ecx, byte ptr [rbp + rcx]
	mov	rbx, qword ptr [rsp + 80]
.Ltmp192:
	#DEBUG_VALUE: BltBuffer <- $rbx
	mov	byte ptr [rbx + 4*rdx], cl
	.cv_loc	7 1 200 0               # .\efimain.c:200:0
	lea	ecx, [rdi + 1]
	movzx	ecx, byte ptr [rbp + rcx]
	mov	rbx, qword ptr [rsp + 80]
.Ltmp193:
	#DEBUG_VALUE: BltBuffer <- $rbx
	mov	byte ptr [rbx + 4*rdx + 1], cl
	.cv_loc	7 1 201 0               # .\efimain.c:201:0
	lea	ecx, [rdi + 2]
	movzx	ecx, byte ptr [rbp + rcx]
	mov	rbx, qword ptr [rsp + 80]
.Ltmp194:
	#DEBUG_VALUE: BltBuffer <- $rbx
	mov	byte ptr [rbx + 4*rdx + 2], cl
	.cv_loc	7 1 202 0               # .\efimain.c:202:0
	mov	rcx, qword ptr [rsp + 80]
.Ltmp195:
	#DEBUG_VALUE: BltBuffer <- $rcx
	mov	byte ptr [rcx + 4*rdx + 3], 0
.Ltmp196:
	.cv_loc	7 1 193 0               # .\efimain.c:193:0
	add	rsi, 1
.Ltmp197:
	#DEBUG_VALUE: m <- $rsi
	#DEBUG_VALUE: BmpData <- $r13
	.cv_loc	7 1 193 0               # .\efimain.c:193:0
	mov	edx, dword ptr [r13 + 4]
	add	edi, 3
	mov	ebx, edx
	cmp	rsi, rdx
	jb	.LBB6_34
	jmp	.LBB6_26
.Ltmp198:
.LBB6_21:
	#DEBUG_VALUE: Mode <- $r14d
	#DEBUG_VALUE: BmpData <- $r13
	.cv_inline_site_id 14 within 7 inlined_at 1 164 0
	.cv_loc	14 1 10 0               # .\efimain.c:10:0
	mov	rcx, qword ptr [rip + StdOut]
	lea	rdx, [rip + "??_C@_1IE@PNCJCHAH@?$AAY?$AAo?$AAu?$AAr?$AA?5?$AAG?$AAr?$AAa?$AAp?$AAh?$AAi?$AAc?$AAs?$AA?5?$AAA?$AAd?$AAa?$AAp?$AAt?$AAe?$AAr?$AA?5?$AAd?$AAo?$AAe?$AAs?$AA?5?$AAn?$AAo?$AAt?$AA?5?$AAs@"]
.Ltmp199:
	#DEBUG_VALUE: ConsoleOutput:String <- $rdx
.LBB6_22:
	#DEBUG_VALUE: Mode <- $r14d
	#DEBUG_VALUE: BmpData <- $r13
	.cv_inline_site_id 15 within 7 inlined_at 1 166 0
	.cv_loc	15 1 10 0               # .\efimain.c:10:0
	call	qword ptr [rcx + 8]
.Ltmp200:
	#DEBUG_LABEL: Error
	mov	rcx, qword ptr [rip + StdOut]
	lea	rdx, [rip + "??_C@_1EC@GHGLIHMM@?$AAP?$AAr?$AAe?$AAs?$AAs?$AA?5?$AAE?$AAn?$AAt?$AAe?$AAr?$AA?5?$AAk?$AAe?$AAy?$AA?5?$AAt?$AAo?$AA?5?$AAc?$AAo?$AAn?$AAt?$AAi?$AAn?$AAu?$AAe?$AA?4?$AA?4?$AA?4?$AA?$AN?$AA?6@"]
.Ltmp201:
	#DEBUG_VALUE: ConsoleOutput:String <- $rdx
	call	qword ptr [rcx + 8]
.Ltmp202:
	#DEBUG_VALUE: BlockUntilKeyStroke:Unicode <- 13
	lea	rsi, [rsp + 80]
	lea	rdi, [rsp + 88]
.Ltmp203:
	.p2align	4, 0x90
.LBB6_23:                               # =>This Inner Loop Header: Depth=1
	#DEBUG_VALUE: BlockUntilKeyStroke:Unicode <- 13
	#DEBUG_VALUE: Mode <- $r14d
	#DEBUG_VALUE: BmpData <- $r13
	#DEBUG_VALUE: fi <- 0
	.cv_inline_site_id 16 within 7 inlined_at 1 167 0
	.cv_loc	16 1 88 0               # .\efimain.c:88:0
	mov	qword ptr [rsp + 80], 0
	.cv_loc	16 1 89 0               # .\efimain.c:89:0
	mov	rax, qword ptr [rip + EfiBoot]
	mov	rdx, qword ptr [rip + StdIn]
	add	rdx, 16
.Ltmp204:
	#DEBUG_VALUE: fi <- [DW_OP_plus_uconst 80, DW_OP_deref] $rsp
	mov	ecx, 1
	mov	r8, rsi
	call	qword ptr [rax + 96]
	.cv_loc	16 1 90 0               # .\efimain.c:90:0
	mov	rcx, qword ptr [rip + StdIn]
	mov	rdx, rdi
	call	qword ptr [rcx + 8]
	.cv_loc	16 1 91 0               # .\efimain.c:91:0
	cmp	word ptr [rsp + 90], 13
	jne	.LBB6_23
.Ltmp205:
# %bb.24:
	#DEBUG_VALUE: fi <- [DW_OP_plus_uconst 80, DW_OP_deref] $rsp
	#DEBUG_VALUE: BlockUntilKeyStroke:Unicode <- 13
	#DEBUG_VALUE: Mode <- $r14d
	#DEBUG_VALUE: BmpData <- $r13
	#DEBUG_VALUE: EfiMain:st <- 0
	movabs	rsi, -9223372036854775805
	jmp	.LBB6_25
.Ltmp206:
.LBB6_20:
	#DEBUG_VALUE: i <- $ecx
	#DEBUG_VALUE: BltBuffer <- [DW_OP_plus_uconst 80, DW_OP_deref] $rsp
	#DEBUG_VALUE: Mode <- $r14d
	#DEBUG_VALUE: BmpData <- $r13
	#DEBUG_VALUE: EfiMain:st <- $rsi
	mov	ebp, 1
.Ltmp207:
.LBB6_27:
	#DEBUG_VALUE: Mode <- $r14d
	#DEBUG_VALUE: BmpData <- $r13
	.cv_loc	7 1 206 0               # .\efimain.c:206:0
	mov	rcx, qword ptr [rip + GraphicsOutput]
.Ltmp208:
	#DEBUG_VALUE: BmpData <- undef
	mov	eax, edx
	mov	rdx, qword ptr [rsp + 80]
.Ltmp209:
	#DEBUG_VALUE: BltBuffer <- $rdx
	mov	qword ptr [rsp + 64], rbp
	mov	qword ptr [rsp + 56], rax
	xorps	xmm0, xmm0
	movups	xmmword ptr [rsp + 32], xmm0
	mov	qword ptr [rsp + 72], 0
	mov	qword ptr [rsp + 48], 0
	mov	r8d, 2
	xor	r9d, r9d
	call	qword ptr [rcx + 16]
.Ltmp210:
	mov	rsi, rax
.Ltmp211:
	#DEBUG_VALUE: EfiMain:st <- $rsi
	.cv_loc	7 1 208 0               # .\efimain.c:208:0
	mov	rax, qword ptr [rip + EfiBoot]
	mov	rcx, qword ptr [rsp + 80]
.Ltmp212:
	#DEBUG_VALUE: BltBuffer <- undef
	call	qword ptr [rax + 72]
	#DEBUG_VALUE: EfiMain:st <- $rsi
	jmp	.LBB6_28
.Ltmp213:
.Lfunc_end6:
	.seh_handlerdata
	.section	.text,"xr",one_only,EfiMain
	.seh_endproc
                                        # -- End function
	.bss
	.globl	EfiBoot                 # @EfiBoot
	.p2align	3
EfiBoot:
	.quad	0

	.globl	StdIn                   # @StdIn
	.p2align	3
StdIn:
	.quad	0

	.globl	StdOut                  # @StdOut
	.p2align	3
StdOut:
	.quad	0

	.globl	StdErr                  # @StdErr
	.p2align	3
StdErr:
	.quad	0

	.globl	GraphicsOutput          # @GraphicsOutput
	.p2align	3
GraphicsOutput:
	.quad	0

	.globl	UnicodeCollation        # @UnicodeCollation
	.p2align	3
UnicodeCollation:
	.quad	0

	.data
	.globl	EfiGraphicsOutputGuid   # @EfiGraphicsOutputGuid
	.p2align	2
EfiGraphicsOutputGuid:
	.long	2420287966              # 0x9042a9de
	.short	9180                    # 0x23dc
	.short	19000                   # 0x4a38
	.ascii	"\226\373z\336\320\200Qj"

	.globl	EfiLoadedImageGuid      # @EfiLoadedImageGuid
	.p2align	2
EfiLoadedImageGuid:
	.long	1528508833              # 0x5b1b31a1
	.short	38242                   # 0x9562
	.short	4562                    # 0x11d2
	.ascii	"\216?\000\240\311ir;"

	.globl	EfiUnicodeCollationGuid # @EfiUnicodeCollationGuid
	.p2align	2
EfiUnicodeCollationGuid:
	.long	495308159               # 0x1d85cd7f
	.short	62525                   # 0xf43d
	.short	4562                    # 0x11d2
	.ascii	"\232\f\000\220'?\301M"

	.section	.rdata,"dr",discard,"??_C@_1DI@OIAGNBDD@?$AAM?$AAo?$AAd?$AAe?$AA?$DN?$AA?$CF?$AAd?$AA?5?$AAR?$AAe?$AAs?$AAo?$AAl?$AAu?$AAt?$AAi?$AAo?$AAn?$AA?3?$AA?5?$AA?$CF?$AAd?$AAx?$AA?$CF?$AAd?$AA?$AN?$AA?6?$AA?$AA@"
	.globl	"??_C@_1DI@OIAGNBDD@?$AAM?$AAo?$AAd?$AAe?$AA?$DN?$AA?$CF?$AAd?$AA?5?$AAR?$AAe?$AAs?$AAo?$AAl?$AAu?$AAt?$AAi?$AAo?$AAn?$AA?3?$AA?5?$AA?$CF?$AAd?$AAx?$AA?$CF?$AAd?$AA?$AN?$AA?6?$AA?$AA@" # @"??_C@_1DI@OIAGNBDD@?$AAM?$AAo?$AAd?$AAe?$AA?$DN?$AA?$CF?$AAd?$AA?5?$AAR?$AAe?$AAs?$AAo?$AAl?$AAu?$AAt?$AAi?$AAo?$AAn?$AA?3?$AA?5?$AA?$CF?$AAd?$AAx?$AA?$CF?$AAd?$AA?$AN?$AA?6?$AA?$AA@"
	.p2align	1
"??_C@_1DI@OIAGNBDD@?$AAM?$AAo?$AAd?$AAe?$AA?$DN?$AA?$CF?$AAd?$AA?5?$AAR?$AAe?$AAs?$AAo?$AAl?$AAu?$AAt?$AAi?$AAo?$AAn?$AA?3?$AA?5?$AA?$CF?$AAd?$AAx?$AA?$CF?$AAd?$AA?$AN?$AA?6?$AA?$AA@":
	.short	77                      # 0x4d
	.short	111                     # 0x6f
	.short	100                     # 0x64
	.short	101                     # 0x65
	.short	61                      # 0x3d
	.short	37                      # 0x25
	.short	100                     # 0x64
	.short	32                      # 0x20
	.short	82                      # 0x52
	.short	101                     # 0x65
	.short	115                     # 0x73
	.short	111                     # 0x6f
	.short	108                     # 0x6c
	.short	117                     # 0x75
	.short	116                     # 0x74
	.short	105                     # 0x69
	.short	111                     # 0x6f
	.short	110                     # 0x6e
	.short	58                      # 0x3a
	.short	32                      # 0x20
	.short	37                      # 0x25
	.short	100                     # 0x64
	.short	120                     # 0x78
	.short	37                      # 0x25
	.short	100                     # 0x64
	.short	13                      # 0xd
	.short	10                      # 0xa
	.short	0                       # 0x0

	.section	.rdata,"dr",discard,"??_C@_1DI@KNBDDLDL@?$AAC?$AAo?$AAn?$AAs?$AAo?$AAl?$AAe?$AA?5?$AAR?$AAe?$AAs?$AAo?$AAl?$AAu?$AAt?$AAi?$AAo?$AAn?$AA?3?$AA?5?$AA?$CF?$AAd?$AAx?$AA?$CF?$AAd?$AA?$AN?$AA?6?$AA?$AA@"
	.globl	"??_C@_1DI@KNBDDLDL@?$AAC?$AAo?$AAn?$AAs?$AAo?$AAl?$AAe?$AA?5?$AAR?$AAe?$AAs?$AAo?$AAl?$AAu?$AAt?$AAi?$AAo?$AAn?$AA?3?$AA?5?$AA?$CF?$AAd?$AAx?$AA?$CF?$AAd?$AA?$AN?$AA?6?$AA?$AA@" # @"??_C@_1DI@KNBDDLDL@?$AAC?$AAo?$AAn?$AAs?$AAo?$AAl?$AAe?$AA?5?$AAR?$AAe?$AAs?$AAo?$AAl?$AAu?$AAt?$AAi?$AAo?$AAn?$AA?3?$AA?5?$AA?$CF?$AAd?$AAx?$AA?$CF?$AAd?$AA?$AN?$AA?6?$AA?$AA@"
	.p2align	1
"??_C@_1DI@KNBDDLDL@?$AAC?$AAo?$AAn?$AAs?$AAo?$AAl?$AAe?$AA?5?$AAR?$AAe?$AAs?$AAo?$AAl?$AAu?$AAt?$AAi?$AAo?$AAn?$AA?3?$AA?5?$AA?$CF?$AAd?$AAx?$AA?$CF?$AAd?$AA?$AN?$AA?6?$AA?$AA@":
	.short	67                      # 0x43
	.short	111                     # 0x6f
	.short	110                     # 0x6e
	.short	115                     # 0x73
	.short	111                     # 0x6f
	.short	108                     # 0x6c
	.short	101                     # 0x65
	.short	32                      # 0x20
	.short	82                      # 0x52
	.short	101                     # 0x65
	.short	115                     # 0x73
	.short	111                     # 0x6f
	.short	108                     # 0x6c
	.short	117                     # 0x75
	.short	116                     # 0x74
	.short	105                     # 0x69
	.short	111                     # 0x6f
	.short	110                     # 0x6e
	.short	58                      # 0x3a
	.short	32                      # 0x20
	.short	37                      # 0x25
	.short	100                     # 0x64
	.short	120                     # 0x78
	.short	37                      # 0x25
	.short	100                     # 0x64
	.short	13                      # 0xd
	.short	10                      # 0xa
	.short	0                       # 0x0

	.section	.rdata,"dr",discard,"??_C@_1EI@BFDIABFG@?$AAL?$AAo?$AAc?$AAa?$AAt?$AAe?$AAd?$AA?5?$AAB?$AAi?$AAt?$AAm?$AAa?$AAp?$AA?$CB?$AA?5?$AAI?$AAm?$AAa?$AAg?$AAe?$AA?5?$AAS?$AAi?$AAz?$AAe?$AA?3?$AA?5?$AA?$CF?$AAd?$AAx?$AA?$CF@"
	.globl	"??_C@_1EI@BFDIABFG@?$AAL?$AAo?$AAc?$AAa?$AAt?$AAe?$AAd?$AA?5?$AAB?$AAi?$AAt?$AAm?$AAa?$AAp?$AA?$CB?$AA?5?$AAI?$AAm?$AAa?$AAg?$AAe?$AA?5?$AAS?$AAi?$AAz?$AAe?$AA?3?$AA?5?$AA?$CF?$AAd?$AAx?$AA?$CF@" # @"??_C@_1EI@BFDIABFG@?$AAL?$AAo?$AAc?$AAa?$AAt?$AAe?$AAd?$AA?5?$AAB?$AAi?$AAt?$AAm?$AAa?$AAp?$AA?$CB?$AA?5?$AAI?$AAm?$AAa?$AAg?$AAe?$AA?5?$AAS?$AAi?$AAz?$AAe?$AA?3?$AA?5?$AA?$CF?$AAd?$AAx?$AA?$CF@"
	.p2align	1
"??_C@_1EI@BFDIABFG@?$AAL?$AAo?$AAc?$AAa?$AAt?$AAe?$AAd?$AA?5?$AAB?$AAi?$AAt?$AAm?$AAa?$AAp?$AA?$CB?$AA?5?$AAI?$AAm?$AAa?$AAg?$AAe?$AA?5?$AAS?$AAi?$AAz?$AAe?$AA?3?$AA?5?$AA?$CF?$AAd?$AAx?$AA?$CF@":
	.short	76                      # 0x4c
	.short	111                     # 0x6f
	.short	99                      # 0x63
	.short	97                      # 0x61
	.short	116                     # 0x74
	.short	101                     # 0x65
	.short	100                     # 0x64
	.short	32                      # 0x20
	.short	66                      # 0x42
	.short	105                     # 0x69
	.short	116                     # 0x74
	.short	109                     # 0x6d
	.short	97                      # 0x61
	.short	112                     # 0x70
	.short	33                      # 0x21
	.short	32                      # 0x20
	.short	73                      # 0x49
	.short	109                     # 0x6d
	.short	97                      # 0x61
	.short	103                     # 0x67
	.short	101                     # 0x65
	.short	32                      # 0x20
	.short	83                      # 0x53
	.short	105                     # 0x69
	.short	122                     # 0x7a
	.short	101                     # 0x65
	.short	58                      # 0x3a
	.short	32                      # 0x20
	.short	37                      # 0x25
	.short	100                     # 0x64
	.short	120                     # 0x78
	.short	37                      # 0x25
	.short	100                     # 0x64
	.short	13                      # 0xd
	.short	10                      # 0xa
	.short	0                       # 0x0

	.section	.rdata,"dr",discard,"??_C@_1FO@OGPDCNAH@?$AAB?$AAi?$AAt?$AAm?$AAa?$AAp?$AA?5?$AAC?$AAo?$AAm?$AAp?$AAr?$AAe?$AAs?$AAs?$AAi?$AAo?$AAn?$AA?5?$AAA?$AAl?$AAg?$AAo?$AAr?$AAi?$AAt?$AAh?$AAm?$AA?5?$AAi?$AAs?$AA?5@"
	.globl	"??_C@_1FO@OGPDCNAH@?$AAB?$AAi?$AAt?$AAm?$AAa?$AAp?$AA?5?$AAC?$AAo?$AAm?$AAp?$AAr?$AAe?$AAs?$AAs?$AAi?$AAo?$AAn?$AA?5?$AAA?$AAl?$AAg?$AAo?$AAr?$AAi?$AAt?$AAh?$AAm?$AA?5?$AAi?$AAs?$AA?5@" # @"??_C@_1FO@OGPDCNAH@?$AAB?$AAi?$AAt?$AAm?$AAa?$AAp?$AA?5?$AAC?$AAo?$AAm?$AAp?$AAr?$AAe?$AAs?$AAs?$AAi?$AAo?$AAn?$AA?5?$AAA?$AAl?$AAg?$AAo?$AAr?$AAi?$AAt?$AAh?$AAm?$AA?5?$AAi?$AAs?$AA?5@"
	.p2align	1
"??_C@_1FO@OGPDCNAH@?$AAB?$AAi?$AAt?$AAm?$AAa?$AAp?$AA?5?$AAC?$AAo?$AAm?$AAp?$AAr?$AAe?$AAs?$AAs?$AAi?$AAo?$AAn?$AA?5?$AAA?$AAl?$AAg?$AAo?$AAr?$AAi?$AAt?$AAh?$AAm?$AA?5?$AAi?$AAs?$AA?5@":
	.short	66                      # 0x42
	.short	105                     # 0x69
	.short	116                     # 0x74
	.short	109                     # 0x6d
	.short	97                      # 0x61
	.short	112                     # 0x70
	.short	32                      # 0x20
	.short	67                      # 0x43
	.short	111                     # 0x6f
	.short	109                     # 0x6d
	.short	112                     # 0x70
	.short	114                     # 0x72
	.short	101                     # 0x65
	.short	115                     # 0x73
	.short	115                     # 0x73
	.short	105                     # 0x69
	.short	111                     # 0x6f
	.short	110                     # 0x6e
	.short	32                      # 0x20
	.short	65                      # 0x41
	.short	108                     # 0x6c
	.short	103                     # 0x67
	.short	111                     # 0x6f
	.short	114                     # 0x72
	.short	105                     # 0x69
	.short	116                     # 0x74
	.short	104                     # 0x68
	.short	109                     # 0x6d
	.short	32                      # 0x20
	.short	105                     # 0x69
	.short	115                     # 0x73
	.short	32                      # 0x20
	.short	117                     # 0x75
	.short	110                     # 0x6e
	.short	115                     # 0x73
	.short	117                     # 0x75
	.short	112                     # 0x70
	.short	112                     # 0x70
	.short	111                     # 0x6f
	.short	114                     # 0x72
	.short	116                     # 0x74
	.short	101                     # 0x65
	.short	100                     # 0x64
	.short	33                      # 0x21
	.short	13                      # 0xd
	.short	10                      # 0xa
	.short	0                       # 0x0

	.section	.rdata,"dr",discard,"??_C@_1GK@FHILJBFM@?$AAO?$AAn?$AAl?$AAy?$AA?5?$AA2?$AA4?$AA?9?$AAb?$AAi?$AAt?$AA?5?$AAT?$AAr?$AAu?$AAe?$AA?9?$AAC?$AAo?$AAl?$AAo?$AAr?$AA?5?$AAF?$AAo?$AAr?$AAm?$AAa?$AAt?$AA?5?$AAB?$AAi@"
	.globl	"??_C@_1GK@FHILJBFM@?$AAO?$AAn?$AAl?$AAy?$AA?5?$AA2?$AA4?$AA?9?$AAb?$AAi?$AAt?$AA?5?$AAT?$AAr?$AAu?$AAe?$AA?9?$AAC?$AAo?$AAl?$AAo?$AAr?$AA?5?$AAF?$AAo?$AAr?$AAm?$AAa?$AAt?$AA?5?$AAB?$AAi@" # @"??_C@_1GK@FHILJBFM@?$AAO?$AAn?$AAl?$AAy?$AA?5?$AA2?$AA4?$AA?9?$AAb?$AAi?$AAt?$AA?5?$AAT?$AAr?$AAu?$AAe?$AA?9?$AAC?$AAo?$AAl?$AAo?$AAr?$AA?5?$AAF?$AAo?$AAr?$AAm?$AAa?$AAt?$AA?5?$AAB?$AAi@"
	.p2align	1
"??_C@_1GK@FHILJBFM@?$AAO?$AAn?$AAl?$AAy?$AA?5?$AA2?$AA4?$AA?9?$AAb?$AAi?$AAt?$AA?5?$AAT?$AAr?$AAu?$AAe?$AA?9?$AAC?$AAo?$AAl?$AAo?$AAr?$AA?5?$AAF?$AAo?$AAr?$AAm?$AAa?$AAt?$AA?5?$AAB?$AAi@":
	.short	79                      # 0x4f
	.short	110                     # 0x6e
	.short	108                     # 0x6c
	.short	121                     # 0x79
	.short	32                      # 0x20
	.short	50                      # 0x32
	.short	52                      # 0x34
	.short	45                      # 0x2d
	.short	98                      # 0x62
	.short	105                     # 0x69
	.short	116                     # 0x74
	.short	32                      # 0x20
	.short	84                      # 0x54
	.short	114                     # 0x72
	.short	117                     # 0x75
	.short	101                     # 0x65
	.short	45                      # 0x2d
	.short	67                      # 0x43
	.short	111                     # 0x6f
	.short	108                     # 0x6c
	.short	111                     # 0x6f
	.short	114                     # 0x72
	.short	32                      # 0x20
	.short	70                      # 0x46
	.short	111                     # 0x6f
	.short	114                     # 0x72
	.short	109                     # 0x6d
	.short	97                      # 0x61
	.short	116                     # 0x74
	.short	32                      # 0x20
	.short	66                      # 0x42
	.short	105                     # 0x69
	.short	116                     # 0x74
	.short	109                     # 0x6d
	.short	97                      # 0x61
	.short	112                     # 0x70
	.short	32                      # 0x20
	.short	105                     # 0x69
	.short	115                     # 0x73
	.short	32                      # 0x20
	.short	115                     # 0x73
	.short	117                     # 0x75
	.short	112                     # 0x70
	.short	112                     # 0x70
	.short	111                     # 0x6f
	.short	114                     # 0x72
	.short	116                     # 0x74
	.short	101                     # 0x65
	.short	100                     # 0x64
	.short	33                      # 0x21
	.short	13                      # 0xd
	.short	10                      # 0xa
	.short	0                       # 0x0

	.section	.rdata,"dr",discard,"??_C@_1EO@BKJDOKCI@?$AAW?$AAe?$AA?5?$AAw?$AAi?$AAl?$AAl?$AA?5?$AAu?$AAs?$AAe?$AA?5?$AAG?$AAr?$AAa?$AAp?$AAh?$AAi?$AAc?$AAs?$AA?5?$AAO?$AAu?$AAt?$AAp?$AAu?$AAt?$AA?5?$AAM?$AAo?$AAd?$AAe@"
	.globl	"??_C@_1EO@BKJDOKCI@?$AAW?$AAe?$AA?5?$AAw?$AAi?$AAl?$AAl?$AA?5?$AAu?$AAs?$AAe?$AA?5?$AAG?$AAr?$AAa?$AAp?$AAh?$AAi?$AAc?$AAs?$AA?5?$AAO?$AAu?$AAt?$AAp?$AAu?$AAt?$AA?5?$AAM?$AAo?$AAd?$AAe@" # @"??_C@_1EO@BKJDOKCI@?$AAW?$AAe?$AA?5?$AAw?$AAi?$AAl?$AAl?$AA?5?$AAu?$AAs?$AAe?$AA?5?$AAG?$AAr?$AAa?$AAp?$AAh?$AAi?$AAc?$AAs?$AA?5?$AAO?$AAu?$AAt?$AAp?$AAu?$AAt?$AA?5?$AAM?$AAo?$AAd?$AAe@"
	.p2align	1
"??_C@_1EO@BKJDOKCI@?$AAW?$AAe?$AA?5?$AAw?$AAi?$AAl?$AAl?$AA?5?$AAu?$AAs?$AAe?$AA?5?$AAG?$AAr?$AAa?$AAp?$AAh?$AAi?$AAc?$AAs?$AA?5?$AAO?$AAu?$AAt?$AAp?$AAu?$AAt?$AA?5?$AAM?$AAo?$AAd?$AAe@":
	.short	87                      # 0x57
	.short	101                     # 0x65
	.short	32                      # 0x20
	.short	119                     # 0x77
	.short	105                     # 0x69
	.short	108                     # 0x6c
	.short	108                     # 0x6c
	.short	32                      # 0x20
	.short	117                     # 0x75
	.short	115                     # 0x73
	.short	101                     # 0x65
	.short	32                      # 0x20
	.short	71                      # 0x47
	.short	114                     # 0x72
	.short	97                      # 0x61
	.short	112                     # 0x70
	.short	104                     # 0x68
	.short	105                     # 0x69
	.short	99                      # 0x63
	.short	115                     # 0x73
	.short	32                      # 0x20
	.short	79                      # 0x4f
	.short	117                     # 0x75
	.short	116                     # 0x74
	.short	112                     # 0x70
	.short	117                     # 0x75
	.short	116                     # 0x74
	.short	32                      # 0x20
	.short	77                      # 0x4d
	.short	111                     # 0x6f
	.short	100                     # 0x64
	.short	101                     # 0x65
	.short	32                      # 0x20
	.short	37                      # 0x25
	.short	100                     # 0x64
	.short	33                      # 0x21
	.short	13                      # 0xd
	.short	10                      # 0xa
	.short	0                       # 0x0

	.section	.rdata,"dr",discard,"??_C@_1IE@PNCJCHAH@?$AAY?$AAo?$AAu?$AAr?$AA?5?$AAG?$AAr?$AAa?$AAp?$AAh?$AAi?$AAc?$AAs?$AA?5?$AAA?$AAd?$AAa?$AAp?$AAt?$AAe?$AAr?$AA?5?$AAd?$AAo?$AAe?$AAs?$AA?5?$AAn?$AAo?$AAt?$AA?5?$AAs@"
	.globl	"??_C@_1IE@PNCJCHAH@?$AAY?$AAo?$AAu?$AAr?$AA?5?$AAG?$AAr?$AAa?$AAp?$AAh?$AAi?$AAc?$AAs?$AA?5?$AAA?$AAd?$AAa?$AAp?$AAt?$AAe?$AAr?$AA?5?$AAd?$AAo?$AAe?$AAs?$AA?5?$AAn?$AAo?$AAt?$AA?5?$AAs@" # @"??_C@_1IE@PNCJCHAH@?$AAY?$AAo?$AAu?$AAr?$AA?5?$AAG?$AAr?$AAa?$AAp?$AAh?$AAi?$AAc?$AAs?$AA?5?$AAA?$AAd?$AAa?$AAp?$AAt?$AAe?$AAr?$AA?5?$AAd?$AAo?$AAe?$AAs?$AA?5?$AAn?$AAo?$AAt?$AA?5?$AAs@"
	.p2align	1
"??_C@_1IE@PNCJCHAH@?$AAY?$AAo?$AAu?$AAr?$AA?5?$AAG?$AAr?$AAa?$AAp?$AAh?$AAi?$AAc?$AAs?$AA?5?$AAA?$AAd?$AAa?$AAp?$AAt?$AAe?$AAr?$AA?5?$AAd?$AAo?$AAe?$AAs?$AA?5?$AAn?$AAo?$AAt?$AA?5?$AAs@":
	.short	89                      # 0x59
	.short	111                     # 0x6f
	.short	117                     # 0x75
	.short	114                     # 0x72
	.short	32                      # 0x20
	.short	71                      # 0x47
	.short	114                     # 0x72
	.short	97                      # 0x61
	.short	112                     # 0x70
	.short	104                     # 0x68
	.short	105                     # 0x69
	.short	99                      # 0x63
	.short	115                     # 0x73
	.short	32                      # 0x20
	.short	65                      # 0x41
	.short	100                     # 0x64
	.short	97                      # 0x61
	.short	112                     # 0x70
	.short	116                     # 0x74
	.short	101                     # 0x65
	.short	114                     # 0x72
	.short	32                      # 0x20
	.short	100                     # 0x64
	.short	111                     # 0x6f
	.short	101                     # 0x65
	.short	115                     # 0x73
	.short	32                      # 0x20
	.short	110                     # 0x6e
	.short	111                     # 0x6f
	.short	116                     # 0x74
	.short	32                      # 0x20
	.short	115                     # 0x73
	.short	117                     # 0x75
	.short	112                     # 0x70
	.short	112                     # 0x70
	.short	111                     # 0x6f
	.short	114                     # 0x72
	.short	116                     # 0x74
	.short	32                      # 0x20
	.short	116                     # 0x74
	.short	104                     # 0x68
	.short	101                     # 0x65
	.short	32                      # 0x20
	.short	114                     # 0x72
	.short	101                     # 0x65
	.short	113                     # 0x71
	.short	117                     # 0x75
	.short	105                     # 0x69
	.short	114                     # 0x72
	.short	101                     # 0x65
	.short	100                     # 0x64
	.short	32                      # 0x20
	.short	114                     # 0x72
	.short	101                     # 0x65
	.short	115                     # 0x73
	.short	111                     # 0x6f
	.short	108                     # 0x6c
	.short	117                     # 0x75
	.short	116                     # 0x74
	.short	105                     # 0x69
	.short	111                     # 0x6f
	.short	110                     # 0x6e
	.short	33                      # 0x21
	.short	13                      # 0xd
	.short	10                      # 0xa
	.short	0                       # 0x0

	.section	.rdata,"dr",discard,"??_C@_1EC@GHGLIHMM@?$AAP?$AAr?$AAe?$AAs?$AAs?$AA?5?$AAE?$AAn?$AAt?$AAe?$AAr?$AA?5?$AAk?$AAe?$AAy?$AA?5?$AAt?$AAo?$AA?5?$AAc?$AAo?$AAn?$AAt?$AAi?$AAn?$AAu?$AAe?$AA?4?$AA?4?$AA?4?$AA?$AN?$AA?6@"
	.globl	"??_C@_1EC@GHGLIHMM@?$AAP?$AAr?$AAe?$AAs?$AAs?$AA?5?$AAE?$AAn?$AAt?$AAe?$AAr?$AA?5?$AAk?$AAe?$AAy?$AA?5?$AAt?$AAo?$AA?5?$AAc?$AAo?$AAn?$AAt?$AAi?$AAn?$AAu?$AAe?$AA?4?$AA?4?$AA?4?$AA?$AN?$AA?6@" # @"??_C@_1EC@GHGLIHMM@?$AAP?$AAr?$AAe?$AAs?$AAs?$AA?5?$AAE?$AAn?$AAt?$AAe?$AAr?$AA?5?$AAk?$AAe?$AAy?$AA?5?$AAt?$AAo?$AA?5?$AAc?$AAo?$AAn?$AAt?$AAi?$AAn?$AAu?$AAe?$AA?4?$AA?4?$AA?4?$AA?$AN?$AA?6@"
	.p2align	1
"??_C@_1EC@GHGLIHMM@?$AAP?$AAr?$AAe?$AAs?$AAs?$AA?5?$AAE?$AAn?$AAt?$AAe?$AAr?$AA?5?$AAk?$AAe?$AAy?$AA?5?$AAt?$AAo?$AA?5?$AAc?$AAo?$AAn?$AAt?$AAi?$AAn?$AAu?$AAe?$AA?4?$AA?4?$AA?4?$AA?$AN?$AA?6@":
	.short	80                      # 0x50
	.short	114                     # 0x72
	.short	101                     # 0x65
	.short	115                     # 0x73
	.short	115                     # 0x73
	.short	32                      # 0x20
	.short	69                      # 0x45
	.short	110                     # 0x6e
	.short	116                     # 0x74
	.short	101                     # 0x65
	.short	114                     # 0x72
	.short	32                      # 0x20
	.short	107                     # 0x6b
	.short	101                     # 0x65
	.short	121                     # 0x79
	.short	32                      # 0x20
	.short	116                     # 0x74
	.short	111                     # 0x6f
	.short	32                      # 0x20
	.short	99                      # 0x63
	.short	111                     # 0x6f
	.short	110                     # 0x6e
	.short	116                     # 0x74
	.short	105                     # 0x69
	.short	110                     # 0x6e
	.short	117                     # 0x75
	.short	101                     # 0x65
	.short	46                      # 0x2e
	.short	46                      # 0x2e
	.short	46                      # 0x2e
	.short	13                      # 0xd
	.short	10                      # 0xa
	.short	0                       # 0x0

	.section	.drectve,"yn"
	.ascii	" /DEFAULTLIB:libcmt.lib"
	.ascii	" /DEFAULTLIB:oldnames.lib"