	.text
	.def	 @feat.00;
	.scl	3;
	.type	0;
	.endef
	.globl	@feat.00
.set @feat.00, 0
	.intel_syntax noprefix
	.file	"format.c"
	.def	 StringVPrintfW;
	.scl	2;
	.type	32;
	.endef
	.section	.text,"xr",one_only,StringVPrintfW
	.globl	StringVPrintfW          # -- Begin function StringVPrintfW
	.p2align	4, 0x90
StringVPrintfW:                         # @StringVPrintfW
.Lfunc_begin0:
	.cv_func_id 0
	.cv_file	1 "D:\\Projects\\HelloUefiBmpRes\\format.c" "DD45F1752682B6B4B63B6376A330D977" 1
	.cv_loc	0 1 7 0                 # .\format.c:7:0
.seh_proc StringVPrintfW
# %bb.0:
	#DEBUG_VALUE: StringVPrintfW:ArgList <- $r9
	#DEBUG_VALUE: StringVPrintfW:Format <- $r8
	#DEBUG_VALUE: StringVPrintfW:Limit <- $rdx
	#DEBUG_VALUE: StringVPrintfW:Output <- $rcx
	push	r15
	.seh_pushreg r15
	push	r14
	.seh_pushreg r14
	push	r13
	.seh_pushreg r13
	push	r12
	.seh_pushreg r12
	push	rsi
	.seh_pushreg rsi
	push	rdi
	.seh_pushreg rdi
	push	rbp
	.seh_pushreg rbp
	push	rbx
	.seh_pushreg rbx
	sub	rsp, 72
	.seh_stackalloc 72
	.seh_endprologue
	mov	r14, r9
	mov	rdi, r8
	mov	r13, rdx
	mov	r15, rcx
.Ltmp0:
	#DEBUG_VALUE: StringVPrintfW:j <- 0
	#DEBUG_VALUE: StringVPrintfW:i <- 0
	#DEBUG_VALUE: StringVPrintfW:buf <- $r15
	#DEBUG_VALUE: StringVPrintfW:Output <- $r15
	#DEBUG_VALUE: StringVPrintfW:Limit <- $r13
	#DEBUG_VALUE: StringVPrintfW:Format <- $rdi
	#DEBUG_VALUE: StringVPrintfW:ArgList <- $r14
	.cv_loc	0 1 10 0                # .\format.c:10:0
	lea	r8, [rdx + rdx]
	xor	esi, esi
	xor	edx, edx
	call	FillMemory
	lea	rcx, [rip + .LJTI0_0]
	xor	ebp, ebp
	jmp	.LBB0_5
.Ltmp1:
.LBB0_11:                               #   in Loop: Header=BB0_5 Depth=1
	#DEBUG_VALUE: inc <- 1
	#DEBUG_VALUE: StringVPrintfW:j <- $rsi
	#DEBUG_VALUE: StringVPrintfW:i <- $rbp
	#DEBUG_VALUE: StringVPrintfW:ArgList <- $r14
	#DEBUG_VALUE: StringVPrintfW:Format <- $rdi
	#DEBUG_VALUE: StringVPrintfW:Limit <- $r13
	#DEBUG_VALUE: StringVPrintfW:Output <- $r15
	#DEBUG_VALUE: StringVPrintfW:buf <- $r15
	.cv_loc	0 1 94 0                # .\format.c:94:0
	mov	word ptr [r15 + 2*rsi], 37
.Ltmp2:
	.p2align	4, 0x90
.LBB0_4:                                #   in Loop: Header=BB0_5 Depth=1
	#DEBUG_VALUE: StringVPrintfW:i <- $rbp
	#DEBUG_VALUE: StringVPrintfW:ArgList <- $r14
	#DEBUG_VALUE: StringVPrintfW:Format <- $rdi
	#DEBUG_VALUE: StringVPrintfW:Limit <- $r13
	#DEBUG_VALUE: StringVPrintfW:Output <- $r15
	#DEBUG_VALUE: StringVPrintfW:buf <- $r15
	.cv_loc	0 1 11 0                # .\format.c:11:0
	add	rsi, rbx
.Ltmp3:
	#DEBUG_VALUE: StringVPrintfW:j <- $rsi
	add	rbp, 1
.Ltmp4:
	#DEBUG_VALUE: StringVPrintfW:i <- $rbp
	#DEBUG_VALUE: StringVPrintfW:ArgList <- $r14
	.cv_loc	0 1 102 0               # .\format.c:102:0
	cmp	rsi, r13
	jae	.LBB0_20
.Ltmp5:
.LBB0_5:                                # =>This Inner Loop Header: Depth=1
	#DEBUG_VALUE: StringVPrintfW:ArgList <- $r14
	#DEBUG_VALUE: StringVPrintfW:Format <- $rdi
	#DEBUG_VALUE: StringVPrintfW:Limit <- $r13
	#DEBUG_VALUE: StringVPrintfW:Output <- $r15
	#DEBUG_VALUE: StringVPrintfW:buf <- $r15
	#DEBUG_VALUE: StringVPrintfW:ArgList <- $r14
	#DEBUG_VALUE: StringVPrintfW:i <- $rbp
	#DEBUG_VALUE: StringVPrintfW:j <- $rsi
	.cv_loc	0 1 11 0                # .\format.c:11:0
	movzx	eax, word ptr [rdi + 2*rbp]
	cmp	ax, 37
	je	.LBB0_8
.Ltmp6:
# %bb.6:                                #   in Loop: Header=BB0_5 Depth=1
	#DEBUG_VALUE: StringVPrintfW:j <- $rsi
	#DEBUG_VALUE: StringVPrintfW:i <- $rbp
	#DEBUG_VALUE: StringVPrintfW:ArgList <- $r14
	#DEBUG_VALUE: StringVPrintfW:Format <- $rdi
	#DEBUG_VALUE: StringVPrintfW:Limit <- $r13
	#DEBUG_VALUE: StringVPrintfW:Output <- $r15
	#DEBUG_VALUE: StringVPrintfW:buf <- $r15
	test	ax, ax
	je	.LBB0_21
.Ltmp7:
# %bb.7:                                #   in Loop: Header=BB0_5 Depth=1
	#DEBUG_VALUE: StringVPrintfW:j <- $rsi
	#DEBUG_VALUE: StringVPrintfW:i <- $rbp
	#DEBUG_VALUE: StringVPrintfW:ArgList <- $r14
	#DEBUG_VALUE: StringVPrintfW:Format <- $rdi
	#DEBUG_VALUE: StringVPrintfW:Limit <- $r13
	#DEBUG_VALUE: StringVPrintfW:Output <- $r15
	#DEBUG_VALUE: StringVPrintfW:buf <- $r15
	#DEBUG_VALUE: StringVPrintfW:j <- [DW_OP_plus_uconst 1, DW_OP_stack_value] $rsi
	.cv_loc	0 1 101 0               # .\format.c:101:0
	mov	word ptr [r15 + 2*rsi], ax
	mov	ebx, 1
	jmp	.LBB0_4
.Ltmp8:
	.p2align	4, 0x90
.LBB0_8:                                #   in Loop: Header=BB0_5 Depth=1
	#DEBUG_VALUE: StringVPrintfW:j <- $rsi
	#DEBUG_VALUE: StringVPrintfW:i <- $rbp
	#DEBUG_VALUE: StringVPrintfW:ArgList <- $r14
	#DEBUG_VALUE: StringVPrintfW:Format <- $rdi
	#DEBUG_VALUE: StringVPrintfW:Limit <- $r13
	#DEBUG_VALUE: StringVPrintfW:Output <- $r15
	#DEBUG_VALUE: StringVPrintfW:buf <- $r15
	#DEBUG_VALUE: inc <- 1
	.cv_loc	0 1 16 0                # .\format.c:16:0
	movzx	eax, word ptr [rdi + 2*rbp + 2]
	mov	ebx, 1
	add	eax, -88
	cmp	ax, 32
	ja	.LBB0_11
.Ltmp9:
# %bb.9:                                #   in Loop: Header=BB0_5 Depth=1
	#DEBUG_VALUE: inc <- 1
	#DEBUG_VALUE: StringVPrintfW:j <- $rsi
	#DEBUG_VALUE: StringVPrintfW:i <- $rbp
	#DEBUG_VALUE: StringVPrintfW:ArgList <- $r14
	#DEBUG_VALUE: StringVPrintfW:Format <- $rdi
	#DEBUG_VALUE: StringVPrintfW:Limit <- $r13
	#DEBUG_VALUE: StringVPrintfW:Output <- $r15
	#DEBUG_VALUE: StringVPrintfW:buf <- $r15
	lea	r12, [rbp + 1]
	movzx	eax, ax
	movsxd	rax, dword ptr [rcx + 4*rax]
	add	rax, rcx
	jmp	rax
.Ltmp10:
.LBB0_1:                                #   in Loop: Header=BB0_5 Depth=1
	#DEBUG_VALUE: inc <- 1
	#DEBUG_VALUE: StringVPrintfW:j <- $rsi
	#DEBUG_VALUE: StringVPrintfW:i <- $rbp
	#DEBUG_VALUE: StringVPrintfW:ArgList <- $r14
	#DEBUG_VALUE: StringVPrintfW:Format <- $rdi
	#DEBUG_VALUE: StringVPrintfW:Limit <- $r13
	#DEBUG_VALUE: StringVPrintfW:Output <- $r15
	#DEBUG_VALUE: StringVPrintfW:buf <- $r15
	.cv_loc	0 1 84 0                # .\format.c:84:0
	mov	ecx, dword ptr [r14]
	add	r14, 8
.Ltmp11:
	#DEBUG_VALUE: n <- $ecx
	#DEBUG_VALUE: StringVPrintfW:ArgList <- $r14
	lea	rbp, [rsp + 32]
.Ltmp12:
	.cv_loc	0 1 86 0                # .\format.c:86:0
	mov	rdx, rbp
	call	IntegerToHEXW
.Ltmp13:
	jmp	.LBB0_2
.Ltmp14:
.LBB0_12:                               #   in Loop: Header=BB0_5 Depth=1
	#DEBUG_VALUE: inc <- 1
	#DEBUG_VALUE: StringVPrintfW:j <- $rsi
	#DEBUG_VALUE: StringVPrintfW:i <- $rbp
	#DEBUG_VALUE: StringVPrintfW:ArgList <- $r14
	#DEBUG_VALUE: StringVPrintfW:Format <- $rdi
	#DEBUG_VALUE: StringVPrintfW:Limit <- $r13
	#DEBUG_VALUE: StringVPrintfW:Output <- $r15
	#DEBUG_VALUE: StringVPrintfW:buf <- $r15
	.cv_loc	0 1 49 0                # .\format.c:49:0
	movzx	eax, word ptr [rdi + 2*rbp + 4]
	add	rbp, 2
.Ltmp15:
	cmp	ax, 115
	je	.LBB0_18
.Ltmp16:
# %bb.13:                               #   in Loop: Header=BB0_5 Depth=1
	#DEBUG_VALUE: inc <- 1
	#DEBUG_VALUE: StringVPrintfW:j <- $rsi
	#DEBUG_VALUE: StringVPrintfW:ArgList <- $r14
	#DEBUG_VALUE: StringVPrintfW:Format <- $rdi
	#DEBUG_VALUE: StringVPrintfW:Limit <- $r13
	#DEBUG_VALUE: StringVPrintfW:Output <- $r15
	#DEBUG_VALUE: StringVPrintfW:buf <- $r15
	cmp	ax, 99
	jne	.LBB0_19
.Ltmp17:
# %bb.14:                               #   in Loop: Header=BB0_5 Depth=1
	#DEBUG_VALUE: inc <- 1
	#DEBUG_VALUE: StringVPrintfW:j <- $rsi
	#DEBUG_VALUE: StringVPrintfW:ArgList <- $r14
	#DEBUG_VALUE: StringVPrintfW:Format <- $rdi
	#DEBUG_VALUE: StringVPrintfW:Limit <- $r13
	#DEBUG_VALUE: StringVPrintfW:Output <- $r15
	#DEBUG_VALUE: StringVPrintfW:buf <- $r15
	.cv_loc	0 1 51 0                # .\format.c:51:0
	movzx	eax, word ptr [r14]
	add	r14, 8
.Ltmp18:
	#DEBUG_VALUE: c <- $ax
	#DEBUG_VALUE: inc <- 1
	#DEBUG_VALUE: StringVPrintfW:ArgList <- $r14
	.cv_loc	0 1 53 0                # .\format.c:53:0
	mov	word ptr [r15 + 2*rsi], ax
.Ltmp19:
	#DEBUG_VALUE: StringVPrintfW:i <- $rbp
	jmp	.LBB0_4
.Ltmp20:
.LBB0_10:                               #   in Loop: Header=BB0_5 Depth=1
	#DEBUG_VALUE: inc <- 1
	#DEBUG_VALUE: StringVPrintfW:j <- $rsi
	#DEBUG_VALUE: StringVPrintfW:i <- $rbp
	#DEBUG_VALUE: StringVPrintfW:ArgList <- $r14
	#DEBUG_VALUE: StringVPrintfW:Format <- $rdi
	#DEBUG_VALUE: StringVPrintfW:Limit <- $r13
	#DEBUG_VALUE: StringVPrintfW:Output <- $r15
	#DEBUG_VALUE: StringVPrintfW:buf <- $r15
	.cv_loc	0 1 20 0                # .\format.c:20:0
	movsx	eax, byte ptr [r14]
	add	r14, 8
.Ltmp21:
	#DEBUG_VALUE: c <- undef
	#DEBUG_VALUE: StringVPrintfW:ArgList <- $r14
	.cv_loc	0 1 21 0                # .\format.c:21:0
	mov	word ptr [r15 + 2*rsi], ax
	#DEBUG_VALUE: inc <- 1
	jmp	.LBB0_4
.Ltmp22:
.LBB0_15:                               #   in Loop: Header=BB0_5 Depth=1
	#DEBUG_VALUE: inc <- 1
	#DEBUG_VALUE: StringVPrintfW:j <- $rsi
	#DEBUG_VALUE: StringVPrintfW:i <- $rbp
	#DEBUG_VALUE: StringVPrintfW:ArgList <- $r14
	#DEBUG_VALUE: StringVPrintfW:Format <- $rdi
	#DEBUG_VALUE: StringVPrintfW:Limit <- $r13
	#DEBUG_VALUE: StringVPrintfW:Output <- $r15
	#DEBUG_VALUE: StringVPrintfW:buf <- $r15
	.cv_loc	0 1 27 0                # .\format.c:27:0
	mov	ecx, dword ptr [r14]
	add	r14, 8
.Ltmp23:
	#DEBUG_VALUE: n <- $ecx
	#DEBUG_VALUE: StringVPrintfW:ArgList <- $r14
	lea	rbp, [rsp + 32]
.Ltmp24:
	.cv_loc	0 1 29 0                # .\format.c:29:0
	mov	rdx, rbp
	call	IntegerToDecimalW
.Ltmp25:
	jmp	.LBB0_2
.Ltmp26:
.LBB0_16:                               #   in Loop: Header=BB0_5 Depth=1
	#DEBUG_VALUE: inc <- 1
	#DEBUG_VALUE: StringVPrintfW:j <- $rsi
	#DEBUG_VALUE: StringVPrintfW:i <- $rbp
	#DEBUG_VALUE: StringVPrintfW:ArgList <- $r14
	#DEBUG_VALUE: StringVPrintfW:Format <- $rdi
	#DEBUG_VALUE: StringVPrintfW:Limit <- $r13
	#DEBUG_VALUE: StringVPrintfW:Output <- $r15
	#DEBUG_VALUE: StringVPrintfW:buf <- $r15
	.cv_loc	0 1 41 0                # .\format.c:41:0
	mov	rdx, qword ptr [r14]
	add	r14, 8
.Ltmp27:
	#DEBUG_VALUE: s <- $rdx
	#DEBUG_VALUE: StringVPrintfW:ArgList <- $r14
	.cv_loc	0 1 42 0                # .\format.c:42:0
	mov	r8, r13
	sub	r8, rsi
	lea	rbx, [r15 + 2*rsi]
	mov	rcx, rbx
	call	StringAnsiToUnicode
.Ltmp28:
	.cv_loc	0 1 43 0                # .\format.c:43:0
	mov	rcx, rbx
	call	StringLengthW
	lea	rcx, [rip + .LJTI0_0]
	mov	rbx, rax
.Ltmp29:
	#DEBUG_VALUE: inc <- $rbx
	#DEBUG_VALUE: StringVPrintfW:i <- $r12
	jmp	.LBB0_3
.Ltmp30:
.LBB0_17:                               #   in Loop: Header=BB0_5 Depth=1
	#DEBUG_VALUE: inc <- 1
	#DEBUG_VALUE: StringVPrintfW:j <- $rsi
	#DEBUG_VALUE: StringVPrintfW:i <- $rbp
	#DEBUG_VALUE: StringVPrintfW:ArgList <- $r14
	#DEBUG_VALUE: StringVPrintfW:Format <- $rdi
	#DEBUG_VALUE: StringVPrintfW:Limit <- $r13
	#DEBUG_VALUE: StringVPrintfW:Output <- $r15
	#DEBUG_VALUE: StringVPrintfW:buf <- $r15
	.cv_loc	0 1 74 0                # .\format.c:74:0
	mov	ecx, dword ptr [r14]
	add	r14, 8
.Ltmp31:
	#DEBUG_VALUE: n <- $ecx
	#DEBUG_VALUE: StringVPrintfW:ArgList <- $r14
	lea	rbp, [rsp + 32]
.Ltmp32:
	.cv_loc	0 1 76 0                # .\format.c:76:0
	mov	rdx, rbp
	call	IntegerToHexW
.Ltmp33:
.LBB0_2:                                #   in Loop: Header=BB0_5 Depth=1
	#DEBUG_VALUE: inc <- 1
	#DEBUG_VALUE: StringVPrintfW:j <- $rsi
	#DEBUG_VALUE: StringVPrintfW:ArgList <- $r14
	#DEBUG_VALUE: StringVPrintfW:Format <- $rdi
	#DEBUG_VALUE: StringVPrintfW:Limit <- $r13
	#DEBUG_VALUE: StringVPrintfW:Output <- $r15
	#DEBUG_VALUE: StringVPrintfW:buf <- $r15
	mov	rcx, rbp
	call	StringLengthW
	mov	rbx, rax
.Ltmp34:
	#DEBUG_VALUE: inc <- $rbx
	mov	r8, r13
	sub	r8, rsi
	lea	rcx, [r15 + 2*rsi]
	mov	rdx, rbp
	call	StringCopyNW
	lea	rcx, [rip + .LJTI0_0]
.Ltmp35:
	#DEBUG_VALUE: StringVPrintfW:i <- $r12
.LBB0_3:                                #   in Loop: Header=BB0_5 Depth=1
	#DEBUG_VALUE: StringVPrintfW:i <- $r12
	#DEBUG_VALUE: StringVPrintfW:j <- $rsi
	#DEBUG_VALUE: StringVPrintfW:ArgList <- $r14
	#DEBUG_VALUE: StringVPrintfW:Format <- $rdi
	#DEBUG_VALUE: StringVPrintfW:Limit <- $r13
	#DEBUG_VALUE: StringVPrintfW:Output <- $r15
	#DEBUG_VALUE: StringVPrintfW:buf <- $r15
	.cv_loc	0 1 9 0                 # .\format.c:9:0
	mov	rbp, r12
.Ltmp36:
	#DEBUG_VALUE: StringVPrintfW:i <- $rbp
	#DEBUG_VALUE: StringVPrintfW:i <- $rbp
	jmp	.LBB0_4
.Ltmp37:
.LBB0_18:                               #   in Loop: Header=BB0_5 Depth=1
	#DEBUG_VALUE: inc <- 1
	#DEBUG_VALUE: StringVPrintfW:j <- $rsi
	#DEBUG_VALUE: StringVPrintfW:ArgList <- $r14
	#DEBUG_VALUE: StringVPrintfW:Format <- $rdi
	#DEBUG_VALUE: StringVPrintfW:Limit <- $r13
	#DEBUG_VALUE: StringVPrintfW:Output <- $r15
	#DEBUG_VALUE: StringVPrintfW:buf <- $r15
	.cv_loc	0 1 58 0                # .\format.c:58:0
	mov	r12, qword ptr [r14]
	add	r14, 8
.Ltmp38:
	#DEBUG_VALUE: s <- $r12
	#DEBUG_VALUE: StringVPrintfW:ArgList <- $r14
	.cv_loc	0 1 59 0                # .\format.c:59:0
	mov	rcx, r12
	call	StringLengthW
	mov	rbx, rax
.Ltmp39:
	#DEBUG_VALUE: inc <- $rbx
	.cv_loc	0 1 60 0                # .\format.c:60:0
	mov	r8, r13
	sub	r8, rsi
	lea	rcx, [r15 + 2*rsi]
	mov	rdx, r12
	call	StringCopyNW
	lea	rcx, [rip + .LJTI0_0]
.Ltmp40:
	#DEBUG_VALUE: StringVPrintfW:i <- $rbp
	jmp	.LBB0_4
.Ltmp41:
.LBB0_19:                               #   in Loop: Header=BB0_5 Depth=1
	#DEBUG_VALUE: inc <- 1
	#DEBUG_VALUE: StringVPrintfW:j <- $rsi
	#DEBUG_VALUE: StringVPrintfW:ArgList <- $r14
	#DEBUG_VALUE: StringVPrintfW:Format <- $rdi
	#DEBUG_VALUE: StringVPrintfW:Limit <- $r13
	#DEBUG_VALUE: StringVPrintfW:Output <- $r15
	#DEBUG_VALUE: StringVPrintfW:buf <- $r15
	#DEBUG_VALUE: inc <- 2
	.cv_loc	0 1 66 0                # .\format.c:66:0
	mov	dword ptr [r15 + 2*rsi], 7798821
	mov	ebx, 2
.Ltmp42:
	#DEBUG_VALUE: StringVPrintfW:i <- $rbp
	jmp	.LBB0_4
.Ltmp43:
.LBB0_20:
	#DEBUG_VALUE: StringVPrintfW:j <- $rsi
	#DEBUG_VALUE: StringVPrintfW:i <- $rbp
	#DEBUG_VALUE: StringVPrintfW:ArgList <- $r14
	#DEBUG_VALUE: StringVPrintfW:Format <- $rdi
	#DEBUG_VALUE: StringVPrintfW:Limit <- $r13
	#DEBUG_VALUE: StringVPrintfW:Output <- $r15
	#DEBUG_VALUE: StringVPrintfW:buf <- $r15
	mov	rsi, r13
.Ltmp44:
	#DEBUG_VALUE: StringVPrintfW:Limit <- $rsi
.LBB0_21:
	#DEBUG_VALUE: StringVPrintfW:i <- $rbp
	#DEBUG_VALUE: StringVPrintfW:ArgList <- $r14
	#DEBUG_VALUE: StringVPrintfW:Format <- $rdi
	#DEBUG_VALUE: StringVPrintfW:Output <- $r15
	#DEBUG_VALUE: StringVPrintfW:buf <- $r15
	#DEBUG_VALUE: StringVPrintfW:j <- $rsi
	.cv_loc	0 1 108 0               # .\format.c:108:0
	mov	eax, esi
	add	rsp, 72
	pop	rbx
	pop	rbp
.Ltmp45:
	pop	rdi
.Ltmp46:
	pop	rsi
.Ltmp47:
	pop	r12
	pop	r13
	pop	r14
.Ltmp48:
	pop	r15
.Ltmp49:
	ret
.Ltmp50:
.Lfunc_end0:
	.p2align	2, 0x90
.LJTI0_0:
	.long	.LBB0_1-.LJTI0_0
	.long	.LBB0_11-.LJTI0_0
	.long	.LBB0_11-.LJTI0_0
	.long	.LBB0_11-.LJTI0_0
	.long	.LBB0_11-.LJTI0_0
	.long	.LBB0_11-.LJTI0_0
	.long	.LBB0_11-.LJTI0_0
	.long	.LBB0_11-.LJTI0_0
	.long	.LBB0_11-.LJTI0_0
	.long	.LBB0_11-.LJTI0_0
	.long	.LBB0_11-.LJTI0_0
	.long	.LBB0_10-.LJTI0_0
	.long	.LBB0_15-.LJTI0_0
	.long	.LBB0_11-.LJTI0_0
	.long	.LBB0_11-.LJTI0_0
	.long	.LBB0_11-.LJTI0_0
	.long	.LBB0_11-.LJTI0_0
	.long	.LBB0_11-.LJTI0_0
	.long	.LBB0_11-.LJTI0_0
	.long	.LBB0_11-.LJTI0_0
	.long	.LBB0_4-.LJTI0_0
	.long	.LBB0_11-.LJTI0_0
	.long	.LBB0_11-.LJTI0_0
	.long	.LBB0_11-.LJTI0_0
	.long	.LBB0_11-.LJTI0_0
	.long	.LBB0_11-.LJTI0_0
	.long	.LBB0_11-.LJTI0_0
	.long	.LBB0_16-.LJTI0_0
	.long	.LBB0_11-.LJTI0_0
	.long	.LBB0_11-.LJTI0_0
	.long	.LBB0_11-.LJTI0_0
	.long	.LBB0_12-.LJTI0_0
	.long	.LBB0_17-.LJTI0_0
	.seh_handlerdata
	.section	.text,"xr",one_only,StringVPrintfW
	.seh_endproc
                                        # -- End function
	.def	 ConsolePrintfW;
	.scl	2;
	.type	32;
	.endef
	.section	.text,"xr",one_only,ConsolePrintfW
	.globl	ConsolePrintfW          # -- Begin function ConsolePrintfW
	.p2align	4, 0x90
ConsolePrintfW:                         # @ConsolePrintfW
.Lfunc_begin1:
	.cv_func_id 1
	.cv_loc	1 1 112 0               # .\format.c:112:0
.seh_proc ConsolePrintfW
# %bb.0:
	#DEBUG_VALUE: ConsolePrintfW:Format <- $rcx
	push	rsi
	.seh_pushreg rsi
	sub	rsp, 1072
	.seh_stackalloc 1072
	.seh_endprologue
	mov	rax, rcx
	mov	qword ptr [rsp + 1096], rdx
	mov	qword ptr [rsp + 1104], r8
	mov	qword ptr [rsp + 1112], r9
	lea	r9, [rsp + 1096]
.Ltmp51:
	#DEBUG_VALUE: ConsolePrintfW:ArgList <- [DW_OP_plus_uconst 40, DW_OP_deref] $rsp
	#DEBUG_VALUE: ConsolePrintfW:ArgList <- $r9
	#DEBUG_VALUE: ConsolePrintfW:len <- 0
	#DEBUG_VALUE: ConsolePrintfW:Format <- $rax
	.cv_loc	1 1 116 0               # .\format.c:116:0
	mov	qword ptr [rsp + 40], r9
	lea	rsi, [rsp + 48]
	.cv_loc	1 1 117 0               # .\format.c:117:0
	mov	edx, 512
	mov	rcx, rsi
	mov	r8, rax
.Ltmp52:
	#DEBUG_VALUE: ConsolePrintfW:Format <- $r8
	call	StringVPrintfW
.Ltmp53:
	#DEBUG_VALUE: ConsolePrintfW:len <- undef
	.cv_loc	1 1 119 0               # .\format.c:119:0
	mov	rcx, qword ptr [rip + StdOut]
	mov	rdx, rsi
	call	qword ptr [rcx + 8]
	.cv_loc	1 1 120 0               # .\format.c:120:0
	nop
	add	rsp, 1072
	pop	rsi
	ret
.Ltmp54:
.Lfunc_end1:
	.seh_handlerdata
	.section	.text,"xr",one_only,ConsolePrintfW
	.seh_endproc
                                        # -- End function
	.section	.drectve,"yn"
	.ascii	" /DEFAULTLIB:libcmt.lib"
	.ascii	" /DEFAULTLIB:oldnames.lib"