	.text
	.def	 @feat.00;
	.scl	3;
	.type	0;
	.endef
	.globl	@feat.00
.set @feat.00, 0
	.intel_syntax noprefix
	.file	"efimain.c"
	.def	 ConsoleOutput;
	.scl	2;
	.type	32;
	.endef
	.globl	ConsoleOutput           # -- Begin function ConsoleOutput
	.p2align	4, 0x90
ConsoleOutput:                          # @ConsoleOutput
.Lfunc_begin0:
	.cv_func_id 0
	.cv_file	1 "D:\\Projects\\HelloUefiBmpRes\\efimain.c" "E199F44583A3E08A257A736F4E0D866B" 1
	.cv_loc	0 1 9 0                 # .\efimain.c:9:0
.seh_proc ConsoleOutput
# %bb.0:
	sub	rsp, 40
	.seh_stackalloc 40
	.seh_endprologue
	mov	qword ptr [rsp + 32], rcx
.Ltmp0:
	.cv_loc	0 1 10 0                # .\efimain.c:10:0
	mov	rax, qword ptr [rip + StdOut]
	mov	rax, qword ptr [rax + 8]
	mov	rdx, qword ptr [rsp + 32]
	mov	rcx, qword ptr [rip + StdOut]
	call	rax
	nop
	add	rsp, 40
	ret
.Ltmp1:
.Lfunc_end0:
	.seh_handlerdata
	.text
	.seh_endproc
                                        # -- End function
	.def	 FindBitmapFromImage;
	.scl	2;
	.type	32;
	.endef
	.globl	FindBitmapFromImage     # -- Begin function FindBitmapFromImage
	.p2align	4, 0x90
FindBitmapFromImage:                    # @FindBitmapFromImage
.Lfunc_begin1:
	.cv_func_id 1
	.cv_loc	1 1 14 0                # .\efimain.c:14:0
.seh_proc FindBitmapFromImage
# %bb.0:
	sub	rsp, 200
	.seh_stackalloc 200
	.seh_endprologue
	mov	qword ptr [rsp + 184], r9
	mov	dword ptr [rsp + 180], r8d
	mov	dword ptr [rsp + 176], edx
	mov	qword ptr [rsp + 168], rcx
.Ltmp2:
	.cv_loc	1 1 15 0                # .\efimain.c:15:0
	mov	qword ptr [rsp + 160], 0
	.cv_loc	1 1 16 0                # .\efimain.c:16:0
	mov	rax, qword ptr [rip + EfiBoot]
	mov	rax, qword ptr [rax + 152]
	lea	rcx, [rsp + 160]
.Ltmp3:
	#DEBUG_VALUE: FindBitmapFromImage:LoadedImage <- [$rcx+0]
	mov	r9, qword ptr [rsp + 168]
	mov	qword ptr [rsp + 40], rcx # 8-byte Spill
.Ltmp4:
	#DEBUG_VALUE: FindBitmapFromImage:LoadedImage <- [DW_OP_plus_uconst 40] [$rsp+0]
	mov	rcx, r9
	lea	rdx, [rip + EfiLoadedImageGuid]
	mov	r8, qword ptr [rsp + 40] # 8-byte Reload
.Ltmp5:
	#DEBUG_VALUE: FindBitmapFromImage:LoadedImage <- [$r8+0]
	call	rax
.Ltmp6:
	mov	qword ptr [rsp + 152], rax
	.cv_loc	1 1 17 0                # .\efimain.c:17:0
	cmp	qword ptr [rsp + 152], 0
	jne	.LBB1_28
# %bb.1:
.Ltmp7:
	.cv_loc	1 1 19 0                # .\efimain.c:19:0
	mov	rax, qword ptr [rsp + 160]
	mov	rax, qword ptr [rax + 64]
	mov	qword ptr [rsp + 144], rax
	.cv_loc	1 1 20 0                # .\efimain.c:20:0
	movabs	rax, -9223372036854775806
	mov	qword ptr [rsp + 152], rax
	.cv_loc	1 1 21 0                # .\efimain.c:21:0
	mov	rax, qword ptr [rsp + 144]
	movzx	ecx, word ptr [rax]
	cmp	ecx, 23117
	jne	.LBB1_27
# %bb.2:
.Ltmp8:
	.cv_loc	1 1 26 0                # .\efimain.c:26:0
	mov	rax, qword ptr [rsp + 144]
	mov	rcx, qword ptr [rsp + 144]
	mov	edx, dword ptr [rcx + 60]
	mov	ecx, edx
	add	rax, rcx
	mov	qword ptr [rsp + 136], rax
	.cv_loc	1 1 28 0                # .\efimain.c:28:0
	mov	rax, qword ptr [rsp + 136]
	cmp	dword ptr [rax], 17744
	jne	.LBB1_26
# %bb.3:
.Ltmp9:
	.cv_loc	1 1 30 0                # .\efimain.c:30:0
	mov	rax, qword ptr [rsp + 136]
	mov	ecx, dword ptr [rax + 152]
	mov	dword ptr [rsp + 132], ecx
	.cv_loc	1 1 31 0                # .\efimain.c:31:0
	mov	rax, qword ptr [rsp + 144]
	mov	ecx, dword ptr [rsp + 132]
	mov	edx, ecx
	add	rax, rdx
	mov	qword ptr [rsp + 120], rax
	.cv_loc	1 1 32 0                # .\efimain.c:32:0
	mov	rax, qword ptr [rsp + 120]
	add	rax, 16
	mov	qword ptr [rsp + 112], rax
	.cv_loc	1 1 33 0                # .\efimain.c:33:0
	movabs	rax, -9223372036854775794
	mov	qword ptr [rsp + 152], rax
.Ltmp10:
	.cv_loc	1 1 34 0                # .\efimain.c:34:0
	mov	word ptr [rsp + 110], 0
.LBB1_4:                                # =>This Loop Header: Depth=1
                                        #     Child Loop BB1_8 Depth 2
                                        #       Child Loop BB1_12 Depth 3
	movzx	eax, word ptr [rsp + 110]
	mov	rcx, qword ptr [rsp + 120]
	movzx	edx, word ptr [rcx + 12]
	mov	rcx, qword ptr [rsp + 120]
	movzx	r8d, word ptr [rcx + 14]
	add	edx, r8d
	cmp	eax, edx
	jge	.LBB1_25
# %bb.5:                                #   in Loop: Header=BB1_4 Depth=1
.Ltmp11:
	.cv_loc	1 1 36 0                # .\efimain.c:36:0
	mov	rax, qword ptr [rsp + 112]
	movzx	ecx, word ptr [rsp + 110]
	mov	edx, ecx
	cmp	dword ptr [rax + 8*rdx], 2
	jne	.LBB1_23
# %bb.6:                                #   in Loop: Header=BB1_4 Depth=1
	mov	rax, qword ptr [rsp + 112]
	movzx	ecx, word ptr [rsp + 110]
	mov	edx, ecx
	mov	ecx, dword ptr [rax + 8*rdx + 4]
	shr	ecx, 31
	cmp	ecx, 0
	je	.LBB1_23
# %bb.7:                                #   in Loop: Header=BB1_4 Depth=1
.Ltmp12:
	.cv_loc	1 1 38 0                # .\efimain.c:38:0
	mov	rax, qword ptr [rsp + 120]
	mov	rcx, qword ptr [rsp + 112]
	movzx	edx, word ptr [rsp + 110]
	mov	r8d, edx
	mov	edx, dword ptr [rcx + 8*r8 + 4]
	and	edx, 2147483647
	mov	edx, edx
	mov	ecx, edx
	add	rax, rcx
	mov	qword ptr [rsp + 96], rax
	.cv_loc	1 1 39 0                # .\efimain.c:39:0
	mov	rax, qword ptr [rsp + 96]
	add	rax, 16
	mov	qword ptr [rsp + 88], rax
.Ltmp13:
	.cv_loc	1 1 40 0                # .\efimain.c:40:0
	mov	word ptr [rsp + 86], 0
.LBB1_8:                                #   Parent Loop BB1_4 Depth=1
                                        # =>  This Loop Header: Depth=2
                                        #       Child Loop BB1_12 Depth 3
	movzx	eax, word ptr [rsp + 86]
	mov	rcx, qword ptr [rsp + 96]
	movzx	edx, word ptr [rcx + 12]
	mov	rcx, qword ptr [rsp + 96]
	movzx	r8d, word ptr [rcx + 14]
	add	edx, r8d
	cmp	eax, edx
	jge	.LBB1_22
# %bb.9:                                #   in Loop: Header=BB1_8 Depth=2
.Ltmp14:
	.cv_loc	1 1 42 0                # .\efimain.c:42:0
	mov	rax, qword ptr [rsp + 88]
	movzx	ecx, word ptr [rsp + 86]
	mov	edx, ecx
	mov	ecx, dword ptr [rax + 8*rdx]
	cmp	ecx, dword ptr [rsp + 180]
	jne	.LBB1_20
# %bb.10:                               #   in Loop: Header=BB1_8 Depth=2
	mov	rax, qword ptr [rsp + 88]
	movzx	ecx, word ptr [rsp + 110]
	mov	edx, ecx
	mov	ecx, dword ptr [rax + 8*rdx + 4]
	shr	ecx, 31
	cmp	ecx, 0
	je	.LBB1_20
# %bb.11:                               #   in Loop: Header=BB1_8 Depth=2
.Ltmp15:
	.cv_loc	1 1 44 0                # .\efimain.c:44:0
	mov	rax, qword ptr [rsp + 120]
	mov	rcx, qword ptr [rsp + 88]
	movzx	edx, word ptr [rsp + 86]
	mov	r8d, edx
	mov	edx, dword ptr [rcx + 8*r8 + 4]
	and	edx, 2147483647
	mov	edx, edx
	mov	ecx, edx
	add	rax, rcx
	mov	qword ptr [rsp + 72], rax
	.cv_loc	1 1 45 0                # .\efimain.c:45:0
	mov	rax, qword ptr [rsp + 72]
	add	rax, 16
	mov	qword ptr [rsp + 64], rax
.Ltmp16:
	.cv_loc	1 1 46 0                # .\efimain.c:46:0
	mov	word ptr [rsp + 62], 0
.LBB1_12:                               #   Parent Loop BB1_4 Depth=1
                                        #     Parent Loop BB1_8 Depth=2
                                        # =>    This Inner Loop Header: Depth=3
	movzx	eax, word ptr [rsp + 62]
	mov	rcx, qword ptr [rsp + 72]
	movzx	edx, word ptr [rcx + 12]
	mov	rcx, qword ptr [rsp + 72]
	movzx	r8d, word ptr [rcx + 14]
	add	edx, r8d
	cmp	eax, edx
	jge	.LBB1_17
# %bb.13:                               #   in Loop: Header=BB1_12 Depth=3
.Ltmp17:
	.cv_loc	1 1 48 0                # .\efimain.c:48:0
	mov	rax, qword ptr [rsp + 64]
	movzx	ecx, word ptr [rsp + 62]
	mov	edx, ecx
	mov	ecx, dword ptr [rax + 8*rdx]
	cmp	ecx, dword ptr [rsp + 176]
	jne	.LBB1_15
# %bb.14:
.Ltmp18:
	.cv_loc	1 1 50 0                # .\efimain.c:50:0
	mov	rax, qword ptr [rsp + 120]
	mov	rcx, qword ptr [rsp + 64]
	movzx	edx, word ptr [rsp + 62]
	mov	r8d, edx
	mov	edx, dword ptr [rcx + 8*r8 + 4]
	mov	ecx, edx
	add	rax, rcx
	mov	qword ptr [rsp + 48], rax
	.cv_loc	1 1 51 0                # .\efimain.c:51:0
	mov	rax, qword ptr [rsp + 144]
	mov	rcx, qword ptr [rsp + 48]
	mov	edx, dword ptr [rcx]
	mov	ecx, edx
	add	rax, rcx
	mov	rcx, qword ptr [rsp + 184]
	mov	qword ptr [rcx], rax
	.cv_loc	1 1 52 0                # .\efimain.c:52:0
	mov	qword ptr [rsp + 192], 0
	jmp	.LBB1_29
.Ltmp19:
.LBB1_15:                               #   in Loop: Header=BB1_12 Depth=3
	.cv_loc	1 1 54 0                # .\efimain.c:54:0
	jmp	.LBB1_16
.Ltmp20:
.LBB1_16:                               #   in Loop: Header=BB1_12 Depth=3
	.cv_loc	1 1 46 0                # .\efimain.c:46:0
	mov	ax, word ptr [rsp + 62]
	add	ax, 1
	mov	word ptr [rsp + 62], ax
	jmp	.LBB1_12
.Ltmp21:
.LBB1_17:                               #   in Loop: Header=BB1_8 Depth=2
	.cv_loc	1 1 55 0                # .\efimain.c:55:0
	cmp	dword ptr [rsp + 176], 0
	je	.LBB1_19
# %bb.18:                               #   in Loop: Header=BB1_4 Depth=1
.Ltmp22:
	.cv_loc	1 1 55 0                # .\efimain.c:55:0
	jmp	.LBB1_22
.Ltmp23:
.LBB1_19:                               #   in Loop: Header=BB1_8 Depth=2
	.cv_loc	1 1 56 0                # .\efimain.c:56:0
	jmp	.LBB1_20
.Ltmp24:
.LBB1_20:                               #   in Loop: Header=BB1_8 Depth=2
	.cv_loc	1 1 57 0                # .\efimain.c:57:0
	jmp	.LBB1_21
.Ltmp25:
.LBB1_21:                               #   in Loop: Header=BB1_8 Depth=2
	.cv_loc	1 1 40 0                # .\efimain.c:40:0
	mov	ax, word ptr [rsp + 86]
	add	ax, 1
	mov	word ptr [rsp + 86], ax
	jmp	.LBB1_8
.Ltmp26:
.LBB1_22:                               #   in Loop: Header=BB1_4 Depth=1
	.cv_loc	1 1 58 0                # .\efimain.c:58:0
	jmp	.LBB1_23
.Ltmp27:
.LBB1_23:                               #   in Loop: Header=BB1_4 Depth=1
	.cv_loc	1 1 59 0                # .\efimain.c:59:0
	jmp	.LBB1_24
.Ltmp28:
.LBB1_24:                               #   in Loop: Header=BB1_4 Depth=1
	.cv_loc	1 1 34 0                # .\efimain.c:34:0
	mov	ax, word ptr [rsp + 110]
	add	ax, 1
	mov	word ptr [rsp + 110], ax
	jmp	.LBB1_4
.Ltmp29:
.LBB1_25:
	.cv_loc	1 1 60 0                # .\efimain.c:60:0
	jmp	.LBB1_26
.Ltmp30:
.LBB1_26:
	.cv_loc	1 1 61 0                # .\efimain.c:61:0
	jmp	.LBB1_27
.Ltmp31:
.LBB1_27:
	.cv_loc	1 1 62 0                # .\efimain.c:62:0
	jmp	.LBB1_28
.Ltmp32:
.LBB1_28:
	.cv_loc	1 1 63 0                # .\efimain.c:63:0
	mov	rax, qword ptr [rsp + 152]
	mov	qword ptr [rsp + 192], rax
.LBB1_29:
	.cv_loc	1 1 64 0                # .\efimain.c:64:0
	mov	rax, qword ptr [rsp + 192]
	add	rsp, 200
	ret
.Ltmp33:
.Lfunc_end1:
	.seh_handlerdata
	.text
	.seh_endproc
                                        # -- End function
	.def	 ChooseGraphicMode;
	.scl	2;
	.type	32;
	.endef
	.globl	ChooseGraphicMode       # -- Begin function ChooseGraphicMode
	.p2align	4, 0x90
ChooseGraphicMode:                      # @ChooseGraphicMode
.Lfunc_begin2:
	.cv_func_id 2
	.cv_loc	2 1 67 0                # .\efimain.c:67:0
.seh_proc ChooseGraphicMode
# %bb.0:
	sub	rsp, 72
	.seh_stackalloc 72
	.seh_endprologue
	mov	dword ptr [rsp + 68], edx
	mov	dword ptr [rsp + 64], ecx
.Ltmp34:
	.cv_loc	2 1 68 0                # .\efimain.c:68:0
	mov	dword ptr [rsp + 60], -1
.Ltmp35:
	.cv_loc	2 1 69 0                # .\efimain.c:69:0
	mov	dword ptr [rsp + 56], 0
.LBB2_1:                                # =>This Inner Loop Header: Depth=1
	mov	eax, dword ptr [rsp + 56]
	mov	rcx, qword ptr [rip + GraphicsOutput]
	mov	rcx, qword ptr [rcx + 24]
	cmp	eax, dword ptr [rcx]
	jae	.LBB2_9
# %bb.2:                                #   in Loop: Header=BB2_1 Depth=1
.Ltmp36:
	.cv_loc	2 1 71 0                # .\efimain.c:71:0
	mov	qword ptr [rsp + 48], 0
	.cv_loc	2 1 72 0                # .\efimain.c:72:0
	mov	qword ptr [rsp + 40], 0
	.cv_loc	2 1 73 0                # .\efimain.c:73:0
	mov	rax, qword ptr [rip + GraphicsOutput]
	mov	rax, qword ptr [rax]
	mov	edx, dword ptr [rsp + 56]
	mov	rcx, qword ptr [rip + GraphicsOutput]
	lea	r8, [rsp + 48]
.Ltmp37:
	#DEBUG_VALUE: InfoSize <- [$r8+0]
	lea	r9, [rsp + 40]
.Ltmp38:
	#DEBUG_VALUE: ModeInfo <- [$r9+0]
	call	rax
.Ltmp39:
	mov	qword ptr [rsp + 32], rax
	.cv_loc	2 1 74 0                # .\efimain.c:74:0
	cmp	qword ptr [rsp + 32], 0
	jne	.LBB2_7
# %bb.3:                                #   in Loop: Header=BB2_1 Depth=1
.Ltmp40:
	.cv_loc	2 1 76 0                # .\efimain.c:76:0
	mov	rax, qword ptr [rsp + 40]
	mov	r9d, dword ptr [rax + 8]
	mov	rax, qword ptr [rsp + 40]
	mov	r8d, dword ptr [rax + 4]
	mov	edx, dword ptr [rsp + 56]
	lea	rcx, [rip + "??_C@_1DI@OIAGNBDD@?$AAM?$AAo?$AAd?$AAe?$AA?$DN?$AA?$CF?$AAd?$AA?5?$AAR?$AAe?$AAs?$AAo?$AAl?$AAu?$AAt?$AAi?$AAo?$AAn?$AA?3?$AA?5?$AA?$CF?$AAd?$AAx?$AA?$CF?$AAd?$AA?$AN?$AA?6?$AA?$AA@"]
	call	ConsolePrintfW
	.cv_loc	2 1 77 0                # .\efimain.c:77:0
	mov	edx, dword ptr [rsp + 64]
	mov	rax, qword ptr [rsp + 40]
	cmp	edx, dword ptr [rax + 4]
	jne	.LBB2_6
# %bb.4:                                #   in Loop: Header=BB2_1 Depth=1
	mov	eax, dword ptr [rsp + 68]
	mov	rcx, qword ptr [rsp + 40]
	cmp	eax, dword ptr [rcx + 8]
	jne	.LBB2_6
# %bb.5:                                #   in Loop: Header=BB2_1 Depth=1
.Ltmp41:
	.cv_loc	2 1 77 0                # .\efimain.c:77:0
	mov	eax, dword ptr [rsp + 56]
	mov	dword ptr [rsp + 60], eax
.Ltmp42:
.LBB2_6:                                #   in Loop: Header=BB2_1 Depth=1
	.cv_loc	2 1 78 0                # .\efimain.c:78:0
	jmp	.LBB2_7
.Ltmp43:
.LBB2_7:                                #   in Loop: Header=BB2_1 Depth=1
	.cv_loc	2 1 79 0                # .\efimain.c:79:0
	jmp	.LBB2_8
.Ltmp44:
.LBB2_8:                                #   in Loop: Header=BB2_1 Depth=1
	.cv_loc	2 1 69 0                # .\efimain.c:69:0
	mov	eax, dword ptr [rsp + 56]
	add	eax, 1
	mov	dword ptr [rsp + 56], eax
	jmp	.LBB2_1
.Ltmp45:
.LBB2_9:
	.cv_loc	2 1 80 0                # .\efimain.c:80:0
	mov	eax, dword ptr [rsp + 60]
	add	rsp, 72
	ret
.Ltmp46:
.Lfunc_end2:
	.seh_handlerdata
	.text
	.seh_endproc
                                        # -- End function
	.def	 BlockUntilKeyStroke;
	.scl	2;
	.type	32;
	.endef
	.globl	BlockUntilKeyStroke     # -- Begin function BlockUntilKeyStroke
	.p2align	4, 0x90
BlockUntilKeyStroke:                    # @BlockUntilKeyStroke
.Lfunc_begin3:
	.cv_func_id 3
	.cv_loc	3 1 84 0                # .\efimain.c:84:0
.seh_proc BlockUntilKeyStroke
# %bb.0:
	sub	rsp, 72
	.seh_stackalloc 72
	.seh_endprologue
	mov	word ptr [rsp + 70], cx
.LBB3_1:                                # =>This Inner Loop Header: Depth=1
.Ltmp47:
	.cv_loc	3 1 88 0                # .\efimain.c:88:0
	mov	qword ptr [rsp + 56], 0
	.cv_loc	3 1 89 0                # .\efimain.c:89:0
	mov	rax, qword ptr [rip + EfiBoot]
	mov	rax, qword ptr [rax + 96]
	mov	rcx, qword ptr [rip + StdIn]
	add	rcx, 16
	mov	edx, 1
	mov	qword ptr [rsp + 48], rcx # 8-byte Spill
	mov	rcx, rdx
	mov	rdx, qword ptr [rsp + 48] # 8-byte Reload
	lea	r8, [rsp + 56]
.Ltmp48:
	#DEBUG_VALUE: fi <- [$r8+0]
	call	rax
.Ltmp49:
	.cv_loc	3 1 90 0                # .\efimain.c:90:0
	mov	rcx, qword ptr [rip + StdIn]
	mov	rcx, qword ptr [rcx + 8]
	mov	rdx, qword ptr [rip + StdIn]
	mov	qword ptr [rsp + 40], rcx # 8-byte Spill
	mov	rcx, rdx
	lea	rdx, [rsp + 64]
	mov	r8, qword ptr [rsp + 40] # 8-byte Reload
	mov	qword ptr [rsp + 32], rax # 8-byte Spill
	call	r8
# %bb.2:                                #   in Loop: Header=BB3_1 Depth=1
	.cv_loc	3 1 91 0                # .\efimain.c:91:0
	movzx	eax, word ptr [rsp + 66]
	movzx	ecx, word ptr [rsp + 70]
	cmp	eax, ecx
	jne	.LBB3_1
.Ltmp50:
# %bb.3:
	.cv_loc	3 1 92 0                # .\efimain.c:92:0
	add	rsp, 72
	ret
.Ltmp51:
.Lfunc_end3:
	.seh_handlerdata
	.text
	.seh_endproc
                                        # -- End function
	.def	 SetBiggestConsole;
	.scl	2;
	.type	32;
	.endef
	.globl	SetBiggestConsole       # -- Begin function SetBiggestConsole
	.p2align	4, 0x90
SetBiggestConsole:                      # @SetBiggestConsole
.Lfunc_begin4:
	.cv_func_id 4
	.cv_loc	4 1 95 0                # .\efimain.c:95:0
.seh_proc SetBiggestConsole
# %bb.0:
	sub	rsp, 104
	.seh_stackalloc 104
	.seh_endprologue
.Ltmp52:
	.cv_loc	4 1 96 0                # .\efimain.c:96:0
	mov	qword ptr [rsp + 96], 0
	mov	qword ptr [rsp + 88], 0
	.cv_loc	4 1 97 0                # .\efimain.c:97:0
	mov	dword ptr [rsp + 84], 0
.Ltmp53:
	.cv_loc	4 1 98 0                # .\efimain.c:98:0
	mov	dword ptr [rsp + 80], 0
.LBB4_1:                                # =>This Inner Loop Header: Depth=1
	mov	eax, dword ptr [rsp + 80]
	mov	rcx, qword ptr [rip + StdOut]
	mov	rcx, qword ptr [rcx + 72]
	cmp	eax, dword ptr [rcx]
	jae	.LBB4_10
# %bb.2:                                #   in Loop: Header=BB4_1 Depth=1
.Ltmp54:
	.cv_loc	4 1 100 0               # .\efimain.c:100:0
	mov	qword ptr [rsp + 72], 0
	mov	qword ptr [rsp + 64], 0
	.cv_loc	4 1 101 0               # .\efimain.c:101:0
	mov	rax, qword ptr [rip + StdOut]
	mov	rax, qword ptr [rax + 24]
	mov	ecx, dword ptr [rsp + 80]
	mov	edx, ecx
	mov	rcx, qword ptr [rip + StdOut]
	lea	r8, [rsp + 64]
.Ltmp55:
	#DEBUG_VALUE: Col <- [$r8+0]
	lea	r9, [rsp + 72]
.Ltmp56:
	#DEBUG_VALUE: Row <- [$r9+0]
	call	rax
.Ltmp57:
	.cv_loc	4 1 102 0               # .\efimain.c:102:0
	mov	rcx, qword ptr [rsp + 72]
	cmp	rcx, qword ptr [rsp + 96]
	jbe	.LBB4_4
# %bb.3:                                #   in Loop: Header=BB4_1 Depth=1
.Ltmp58:
	.cv_loc	4 1 104 0               # .\efimain.c:104:0
	mov	rax, qword ptr [rsp + 64]
	mov	qword ptr [rsp + 88], rax
	.cv_loc	4 1 105 0               # .\efimain.c:105:0
	mov	rax, qword ptr [rsp + 72]
	mov	qword ptr [rsp + 96], rax
	.cv_loc	4 1 106 0               # .\efimain.c:106:0
	mov	ecx, dword ptr [rsp + 80]
	mov	dword ptr [rsp + 84], ecx
	.cv_loc	4 1 107 0               # .\efimain.c:107:0
	jmp	.LBB4_8
.Ltmp59:
.LBB4_4:                                #   in Loop: Header=BB4_1 Depth=1
	.cv_loc	4 1 108 0               # .\efimain.c:108:0
	mov	rax, qword ptr [rsp + 72]
	cmp	rax, qword ptr [rsp + 96]
	jne	.LBB4_7
# %bb.5:                                #   in Loop: Header=BB4_1 Depth=1
	mov	rax, qword ptr [rsp + 64]
	cmp	rax, qword ptr [rsp + 88]
	jbe	.LBB4_7
# %bb.6:                                #   in Loop: Header=BB4_1 Depth=1
.Ltmp60:
	.cv_loc	4 1 110 0               # .\efimain.c:110:0
	mov	rax, qword ptr [rsp + 64]
	mov	qword ptr [rsp + 88], rax
	.cv_loc	4 1 111 0               # .\efimain.c:111:0
	mov	ecx, dword ptr [rsp + 80]
	mov	dword ptr [rsp + 84], ecx
.Ltmp61:
.LBB4_7:                                #   in Loop: Header=BB4_1 Depth=1
	.cv_loc	4 1 108 0               # .\efimain.c:108:0
	jmp	.LBB4_8
.Ltmp62:
.LBB4_8:                                #   in Loop: Header=BB4_1 Depth=1
	.cv_loc	4 1 113 0               # .\efimain.c:113:0
	jmp	.LBB4_9
.Ltmp63:
.LBB4_9:                                #   in Loop: Header=BB4_1 Depth=1
	.cv_loc	4 1 98 0                # .\efimain.c:98:0
	mov	eax, dword ptr [rsp + 80]
	add	eax, 1
	mov	dword ptr [rsp + 80], eax
	jmp	.LBB4_1
.Ltmp64:
.LBB4_10:
	.cv_loc	4 1 114 0               # .\efimain.c:114:0
	mov	rax, qword ptr [rip + StdOut]
	mov	rax, qword ptr [rax + 40]
	mov	rcx, qword ptr [rip + StdOut]
	mov	edx, 15
	call	rax
	.cv_loc	4 1 115 0               # .\efimain.c:115:0
	mov	rcx, qword ptr [rip + StdOut]
	mov	rcx, qword ptr [rcx + 32]
	mov	r8d, dword ptr [rsp + 84]
	mov	edx, r8d
	mov	r9, qword ptr [rip + StdOut]
	mov	qword ptr [rsp + 56], rcx # 8-byte Spill
	mov	rcx, r9
	mov	r9, qword ptr [rsp + 56] # 8-byte Reload
	mov	qword ptr [rsp + 48], rax # 8-byte Spill
	call	r9
	.cv_loc	4 1 116 0               # .\efimain.c:116:0
	mov	r8, qword ptr [rsp + 96]
	mov	rdx, qword ptr [rsp + 88]
	lea	rcx, [rip + "??_C@_1DI@KNBDDLDL@?$AAC?$AAo?$AAn?$AAs?$AAo?$AAl?$AAe?$AA?5?$AAR?$AAe?$AAs?$AAo?$AAl?$AAu?$AAt?$AAi?$AAo?$AAn?$AA?3?$AA?5?$AA?$CF?$AAd?$AAx?$AA?$CF?$AAd?$AA?$AN?$AA?6?$AA?$AA@"]
	mov	qword ptr [rsp + 40], rax # 8-byte Spill
	call	ConsolePrintfW
	.cv_loc	4 1 117 0               # .\efimain.c:117:0
	nop
	add	rsp, 104
	ret
.Ltmp65:
.Lfunc_end4:
	.seh_handlerdata
	.text
	.seh_endproc
                                        # -- End function
	.def	 EfiInit;
	.scl	2;
	.type	32;
	.endef
	.globl	EfiInit                 # -- Begin function EfiInit
	.p2align	4, 0x90
EfiInit:                                # @EfiInit
.Lfunc_begin5:
	.cv_func_id 5
	.cv_loc	5 1 120 0               # .\efimain.c:120:0
.seh_proc EfiInit
# %bb.0:
	sub	rsp, 88
	.seh_stackalloc 88
	.seh_endprologue
	xor	eax, eax
	mov	edx, eax
	lea	r8, [rip + GraphicsOutput]
	mov	qword ptr [rsp + 72], rcx
.Ltmp66:
	.cv_loc	5 1 121 0               # .\efimain.c:121:0
	mov	qword ptr [rsp + 64], 0
	.cv_loc	5 1 122 0               # .\efimain.c:122:0
	mov	rcx, qword ptr [rsp + 72]
	mov	rcx, qword ptr [rcx + 96]
	mov	qword ptr [rip + EfiBoot], rcx
	.cv_loc	5 1 123 0               # .\efimain.c:123:0
	mov	rcx, qword ptr [rsp + 72]
	mov	rcx, qword ptr [rcx + 48]
	mov	qword ptr [rip + StdIn], rcx
	.cv_loc	5 1 124 0               # .\efimain.c:124:0
	mov	rcx, qword ptr [rsp + 72]
	mov	rcx, qword ptr [rcx + 64]
	mov	qword ptr [rip + StdOut], rcx
	.cv_loc	5 1 125 0               # .\efimain.c:125:0
	mov	rcx, qword ptr [rsp + 72]
	mov	rcx, qword ptr [rcx + 80]
	mov	qword ptr [rip + StdErr], rcx
	.cv_loc	5 1 126 0               # .\efimain.c:126:0
	mov	rcx, qword ptr [rip + EfiBoot]
	lea	r9, [rip + EfiGraphicsOutputGuid]
	mov	qword ptr [rsp + 56], rcx # 8-byte Spill
	mov	rcx, r9
	mov	r9, qword ptr [rsp + 56] # 8-byte Reload
	call	qword ptr [r9 + 320]
	mov	qword ptr [rsp + 64], rax
	.cv_loc	5 1 127 0               # .\efimain.c:127:0
	cmp	qword ptr [rsp + 64], 0
	je	.LBB5_2
# %bb.1:
.Ltmp67:
	.cv_loc	5 1 127 0               # .\efimain.c:127:0
	mov	rax, qword ptr [rsp + 64]
	mov	qword ptr [rsp + 80], rax
	jmp	.LBB5_3
.Ltmp68:
.LBB5_2:
	.cv_loc	5 1 128 0               # .\efimain.c:128:0
	xor	eax, eax
	mov	edx, eax
	lea	rcx, [rip + UnicodeCollation]
	mov	r8, qword ptr [rip + EfiBoot]
	lea	r9, [rip + EfiUnicodeCollationGuid]
	mov	qword ptr [rsp + 48], rcx # 8-byte Spill
	mov	rcx, r9
	mov	r9, qword ptr [rsp + 48] # 8-byte Reload
	mov	qword ptr [rsp + 40], r8 # 8-byte Spill
	mov	r8, r9
	mov	r10, qword ptr [rsp + 40] # 8-byte Reload
	call	qword ptr [r10 + 320]
	mov	qword ptr [rsp + 64], rax
	.cv_loc	5 1 129 0               # .\efimain.c:129:0
	call	SetBiggestConsole
	.cv_loc	5 1 130 0               # .\efimain.c:130:0
	mov	rax, qword ptr [rsp + 64]
	mov	qword ptr [rsp + 80], rax
.LBB5_3:
	.cv_loc	5 1 131 0               # .\efimain.c:131:0
	mov	rax, qword ptr [rsp + 80]
	add	rsp, 88
	ret
.Ltmp69:
.Lfunc_end5:
	.seh_handlerdata
	.text
	.seh_endproc
                                        # -- End function
	.def	 EfiMain;
	.scl	2;
	.type	32;
	.endef
	.globl	EfiMain                 # -- Begin function EfiMain
	.p2align	4, 0x90
EfiMain:                                # @EfiMain
.Lfunc_begin6:
	.cv_func_id 6
	.cv_loc	6 1 134 0               # .\efimain.c:134:0
.seh_proc EfiMain
# %bb.0:
	sub	rsp, 232
	.seh_stackalloc 232
	.seh_endprologue
	mov	qword ptr [rsp + 216], rdx
	mov	qword ptr [rsp + 208], rcx
.Ltmp70:
	.cv_loc	6 1 136 0               # .\efimain.c:136:0
	mov	rcx, qword ptr [rsp + 216]
	call	EfiInit
	mov	qword ptr [rsp + 200], rax
	.cv_loc	6 1 137 0               # .\efimain.c:137:0
	cmp	qword ptr [rsp + 200], 0
	jne	.LBB6_24
# %bb.1:
.Ltmp71:
	.cv_loc	6 1 139 0               # .\efimain.c:139:0
	mov	qword ptr [rsp + 192], 0
	.cv_loc	6 1 141 0               # .\efimain.c:141:0
	mov	rcx, qword ptr [rsp + 208]
	mov	edx, 2052
	mov	r8d, 102
	lea	r9, [rsp + 192]
.Ltmp72:
	#DEBUG_VALUE: BmpData <- [$r9+0]
	call	FindBitmapFromImage
.Ltmp73:
	mov	qword ptr [rsp + 200], rax
	.cv_loc	6 1 142 0               # .\efimain.c:142:0
	cmp	qword ptr [rsp + 200], 0
	jne	.LBB6_23
# %bb.2:
.Ltmp74:
	.cv_loc	6 1 145 0               # .\efimain.c:145:0
	mov	rax, qword ptr [rsp + 192]
	mov	edx, dword ptr [rax + 8]
	mov	rax, qword ptr [rsp + 192]
	mov	ecx, dword ptr [rax + 4]
	call	ChooseGraphicMode
	mov	dword ptr [rsp + 188], eax
	.cv_loc	6 1 146 0               # .\efimain.c:146:0
	mov	r8, qword ptr [rsp + 192]
	mov	r8d, dword ptr [r8 + 8]
	mov	r9, qword ptr [rsp + 192]
	mov	edx, dword ptr [r9 + 4]
	lea	rcx, [rip + "??_C@_1EI@BFDIABFG@?$AAL?$AAo?$AAc?$AAa?$AAt?$AAe?$AAd?$AA?5?$AAB?$AAi?$AAt?$AAm?$AAa?$AAp?$AA?$CB?$AA?5?$AAI?$AAm?$AAa?$AAg?$AAe?$AA?5?$AAS?$AAi?$AAz?$AAe?$AA?3?$AA?5?$AA?$CF?$AAd?$AAx?$AA?$CF@"]
	call	ConsolePrintfW
	.cv_loc	6 1 148 0               # .\efimain.c:148:0
	mov	rcx, qword ptr [rsp + 192]
	cmp	dword ptr [rcx + 16], 0
	je	.LBB6_4
# %bb.3:
.Ltmp75:
	.cv_loc	6 1 150 0               # .\efimain.c:150:0
	lea	rcx, [rip + "??_C@_1FO@OGPDCNAH@?$AAB?$AAi?$AAt?$AAm?$AAa?$AAp?$AA?5?$AAC?$AAo?$AAm?$AAp?$AAr?$AAe?$AAs?$AAs?$AAi?$AAo?$AAn?$AA?5?$AAA?$AAl?$AAg?$AAo?$AAr?$AAi?$AAt?$AAh?$AAm?$AA?5?$AAi?$AAs?$AA?5@"]
	call	ConsoleOutput
	.cv_loc	6 1 151 0               # .\efimain.c:151:0
	jmp	.LBB6_9
.Ltmp76:
.LBB6_4:
	.cv_loc	6 1 154 0               # .\efimain.c:154:0
	mov	rax, qword ptr [rsp + 192]
	movzx	ecx, word ptr [rax + 14]
	cmp	ecx, 24
	je	.LBB6_6
# %bb.5:
.Ltmp77:
	.cv_loc	6 1 156 0               # .\efimain.c:156:0
	lea	rcx, [rip + "??_C@_1GK@FHILJBFM@?$AAO?$AAn?$AAl?$AAy?$AA?5?$AA2?$AA4?$AA?9?$AAb?$AAi?$AAt?$AA?5?$AAT?$AAr?$AAu?$AAe?$AA?9?$AAC?$AAo?$AAl?$AAo?$AAr?$AA?5?$AAF?$AAo?$AAr?$AAm?$AAa?$AAt?$AA?5?$AAB?$AAi@"]
	call	ConsoleOutput
	.cv_loc	6 1 157 0               # .\efimain.c:157:0
	jmp	.LBB6_9
.Ltmp78:
.LBB6_6:
	.cv_loc	6 1 160 0               # .\efimain.c:160:0
	cmp	dword ptr [rsp + 188], -1
	je	.LBB6_8
# %bb.7:
.Ltmp79:
	.cv_loc	6 1 161 0               # .\efimain.c:161:0
	mov	edx, dword ptr [rsp + 188]
	lea	rcx, [rip + "??_C@_1EO@BKJDOKCI@?$AAW?$AAe?$AA?5?$AAw?$AAi?$AAl?$AAl?$AA?5?$AAu?$AAs?$AAe?$AA?5?$AAG?$AAr?$AAa?$AAp?$AAh?$AAi?$AAc?$AAs?$AA?5?$AAO?$AAu?$AAt?$AAp?$AAu?$AAt?$AA?5?$AAM?$AAo?$AAd?$AAe@"]
	call	ConsolePrintfW
	jmp	.LBB6_10
.LBB6_8:
.Ltmp80:
	.cv_loc	6 1 164 0               # .\efimain.c:164:0
	lea	rcx, [rip + "??_C@_1IE@PNCJCHAH@?$AAY?$AAo?$AAu?$AAr?$AA?5?$AAG?$AAr?$AAa?$AAp?$AAh?$AAi?$AAc?$AAs?$AA?5?$AAA?$AAd?$AAa?$AAp?$AAt?$AAe?$AAr?$AA?5?$AAd?$AAo?$AAe?$AAs?$AA?5?$AAn?$AAo?$AAt?$AA?5?$AAs@"]
	call	ConsoleOutput
.LBB6_9:
.Ltmp81:
	#DEBUG_LABEL: Error
	.cv_loc	6 1 166 0               # .\efimain.c:166:0
	lea	rcx, [rip + "??_C@_1EC@GHGLIHMM@?$AAP?$AAr?$AAe?$AAs?$AAs?$AA?5?$AAE?$AAn?$AAt?$AAe?$AAr?$AA?5?$AAk?$AAe?$AAy?$AA?5?$AAt?$AAo?$AA?5?$AAc?$AAo?$AAn?$AAt?$AAi?$AAn?$AAu?$AAe?$AA?4?$AA?4?$AA?4?$AA?$AN?$AA?6@"]
	call	ConsoleOutput
	.cv_loc	6 1 167 0               # .\efimain.c:167:0
	mov	ecx, 13
	mov	qword ptr [rsp + 128], rax # 8-byte Spill
	call	BlockUntilKeyStroke
	.cv_loc	6 1 168 0               # .\efimain.c:168:0
	movabs	rax, -9223372036854775805
	mov	qword ptr [rsp + 224], rax
	jmp	.LBB6_25
.Ltmp82:
.LBB6_10:
	.cv_loc	6 1 171 0               # .\efimain.c:171:0
	lea	rcx, [rip + "??_C@_1EC@GHGLIHMM@?$AAP?$AAr?$AAe?$AAs?$AAs?$AA?5?$AAE?$AAn?$AAt?$AAe?$AAr?$AA?5?$AAk?$AAe?$AAy?$AA?5?$AAt?$AAo?$AA?5?$AAc?$AAo?$AAn?$AAt?$AAi?$AAn?$AAu?$AAe?$AA?4?$AA?4?$AA?4?$AA?$AN?$AA?6@"]
	call	ConsoleOutput
	.cv_loc	6 1 172 0               # .\efimain.c:172:0
	mov	ecx, 13
	mov	qword ptr [rsp + 120], rax # 8-byte Spill
	call	BlockUntilKeyStroke
	.cv_loc	6 1 174 0               # .\efimain.c:174:0
	mov	rax, qword ptr [rip + GraphicsOutput]
	mov	rax, qword ptr [rax + 8]
	mov	edx, dword ptr [rsp + 188]
	mov	rcx, qword ptr [rip + GraphicsOutput]
	call	rax
	mov	qword ptr [rsp + 200], rax
	.cv_loc	6 1 175 0               # .\efimain.c:175:0
	cmp	qword ptr [rsp + 200], 0
	jne	.LBB6_22
# %bb.11:
.Ltmp83:
	.cv_loc	6 1 178 0               # .\efimain.c:178:0
	mov	qword ptr [rsp + 176], 0
	.cv_loc	6 1 179 0               # .\efimain.c:179:0
	mov	rax, qword ptr [rip + EfiBoot]
	mov	rax, qword ptr [rax + 64]
	lea	rcx, [rsp + 176]
.Ltmp84:
	#DEBUG_VALUE: BltBuffer <- [$rcx+0]
	mov	rdx, qword ptr [rsp + 192]
	mov	r8d, dword ptr [rdx + 4]
	mov	rdx, qword ptr [rsp + 192]
	imul	r8d, dword ptr [rdx + 8]
	mov	r8d, r8d
	mov	edx, r8d
	shl	rdx, 2
	mov	r8d, 2
	mov	qword ptr [rsp + 112], rcx # 8-byte Spill
.Ltmp85:
	#DEBUG_VALUE: BltBuffer <- [DW_OP_plus_uconst 112] [$rsp+0]
	mov	ecx, r8d
	mov	r8, qword ptr [rsp + 112] # 8-byte Reload
.Ltmp86:
	#DEBUG_VALUE: BltBuffer <- [$r8+0]
	call	rax
.Ltmp87:
	mov	qword ptr [rsp + 200], rax
	.cv_loc	6 1 180 0               # .\efimain.c:180:0
	cmp	qword ptr [rsp + 200], 0
	jne	.LBB6_21
# %bb.12:
.Ltmp88:
	.cv_loc	6 1 183 0               # .\efimain.c:183:0
	mov	rax, qword ptr [rsp + 192]
	mov	rcx, qword ptr [rsp + 192]
	mov	edx, dword ptr [rcx]
	mov	ecx, edx
	add	rax, rcx
	mov	qword ptr [rsp + 168], rax
.Ltmp89:
	.cv_loc	6 1 185 0               # .\efimain.c:185:0
	mov	rax, qword ptr [rsp + 192]
	mov	edx, dword ptr [rax + 8]
	sub	edx, 1
	mov	dword ptr [rsp + 164], edx
.LBB6_13:                               # =>This Loop Header: Depth=1
                                        #     Child Loop BB6_15 Depth 2
	cmp	dword ptr [rsp + 164], 0
	jbe	.LBB6_20
# %bb.14:                               #   in Loop: Header=BB6_13 Depth=1
.Ltmp90:
	.cv_loc	6 1 187 0               # .\efimain.c:187:0
	mov	rax, qword ptr [rsp + 192]
	mov	ecx, dword ptr [rax + 8]
	sub	ecx, dword ptr [rsp + 164]
	sub	ecx, 1
	mov	dword ptr [rsp + 160], ecx
	.cv_loc	6 1 191 0               # .\efimain.c:191:0
	mov	rax, qword ptr [rsp + 168]
	imul	ecx, dword ptr [rsp + 160], 3
	mov	rdx, qword ptr [rsp + 192]
	imul	ecx, dword ptr [rdx + 4]
	mov	ecx, ecx
	mov	edx, ecx
	add	rax, rdx
	mov	rdx, qword ptr [rsp + 192]
	mov	ecx, dword ptr [rdx + 4]
	and	ecx, 3
	mov	ecx, ecx
	mov	edx, ecx
	add	rax, rdx
	mov	qword ptr [rsp + 152], rax
.Ltmp91:
	.cv_loc	6 1 193 0               # .\efimain.c:193:0
	mov	dword ptr [rsp + 148], 0
.LBB6_15:                               #   Parent Loop BB6_13 Depth=1
                                        # =>  This Inner Loop Header: Depth=2
	mov	eax, dword ptr [rsp + 148]
	mov	rcx, qword ptr [rsp + 192]
	cmp	eax, dword ptr [rcx + 4]
	jae	.LBB6_18
# %bb.16:                               #   in Loop: Header=BB6_15 Depth=2
.Ltmp92:
	.cv_loc	6 1 196 0               # .\efimain.c:196:0
	mov	eax, dword ptr [rsp + 164]
	mov	rcx, qword ptr [rsp + 192]
	imul	eax, dword ptr [rcx + 4]
	add	eax, dword ptr [rsp + 148]
	mov	dword ptr [rsp + 144], eax
	.cv_loc	6 1 197 0               # .\efimain.c:197:0
	imul	eax, dword ptr [rsp + 148], 3
	mov	dword ptr [rsp + 140], eax
	.cv_loc	6 1 199 0               # .\efimain.c:199:0
	mov	rcx, qword ptr [rsp + 152]
	mov	eax, dword ptr [rsp + 140]
	mov	edx, eax
	mov	r8b, byte ptr [rcx + rdx]
	mov	rcx, qword ptr [rsp + 176]
	mov	eax, dword ptr [rsp + 144]
	mov	edx, eax
	mov	byte ptr [rcx + 4*rdx], r8b
	.cv_loc	6 1 200 0               # .\efimain.c:200:0
	mov	rcx, qword ptr [rsp + 152]
	mov	eax, dword ptr [rsp + 140]
	add	eax, 1
	mov	eax, eax
	mov	edx, eax
	mov	r8b, byte ptr [rcx + rdx]
	mov	rcx, qword ptr [rsp + 176]
	mov	eax, dword ptr [rsp + 144]
	mov	edx, eax
	mov	byte ptr [rcx + 4*rdx + 1], r8b
	.cv_loc	6 1 201 0               # .\efimain.c:201:0
	mov	rcx, qword ptr [rsp + 152]
	mov	eax, dword ptr [rsp + 140]
	add	eax, 2
	mov	eax, eax
	mov	edx, eax
	mov	r8b, byte ptr [rcx + rdx]
	mov	rcx, qword ptr [rsp + 176]
	mov	eax, dword ptr [rsp + 144]
	mov	edx, eax
	mov	byte ptr [rcx + 4*rdx + 2], r8b
	.cv_loc	6 1 202 0               # .\efimain.c:202:0
	mov	rcx, qword ptr [rsp + 176]
	mov	eax, dword ptr [rsp + 144]
	mov	edx, eax
	mov	byte ptr [rcx + 4*rdx + 3], 0
.Ltmp93:
# %bb.17:                               #   in Loop: Header=BB6_15 Depth=2
	.cv_loc	6 1 193 0               # .\efimain.c:193:0
	mov	eax, dword ptr [rsp + 148]
	add	eax, 1
	mov	dword ptr [rsp + 148], eax
	jmp	.LBB6_15
.Ltmp94:
.LBB6_18:                               #   in Loop: Header=BB6_13 Depth=1
	.cv_loc	6 1 204 0               # .\efimain.c:204:0
	jmp	.LBB6_19
.Ltmp95:
.LBB6_19:                               #   in Loop: Header=BB6_13 Depth=1
	.cv_loc	6 1 185 0               # .\efimain.c:185:0
	mov	eax, dword ptr [rsp + 164]
	add	eax, -1
	mov	dword ptr [rsp + 164], eax
	jmp	.LBB6_13
.Ltmp96:
.LBB6_20:
	.cv_loc	6 1 206 0               # .\efimain.c:206:0
	xor	eax, eax
	mov	r9d, eax
	mov	rcx, qword ptr [rip + GraphicsOutput]
	mov	rcx, qword ptr [rcx + 16]
	mov	rdx, qword ptr [rsp + 192]
	mov	eax, dword ptr [rdx + 8]
	mov	edx, eax
	mov	r8, qword ptr [rsp + 192]
	mov	eax, dword ptr [r8 + 4]
	mov	r8d, eax
	mov	r10, qword ptr [rsp + 176]
	mov	r11, qword ptr [rip + GraphicsOutput]
	mov	qword ptr [rsp + 104], rcx # 8-byte Spill
	mov	rcx, r11
	mov	qword ptr [rsp + 96], rdx # 8-byte Spill
	mov	rdx, r10
	mov	eax, 2
	mov	qword ptr [rsp + 88], r8 # 8-byte Spill
	mov	r8d, eax
	mov	qword ptr [rsp + 32], 0
	mov	qword ptr [rsp + 40], 0
	mov	qword ptr [rsp + 48], 0
	mov	r10, qword ptr [rsp + 88] # 8-byte Reload
	mov	qword ptr [rsp + 56], r10
	mov	r10, qword ptr [rsp + 96] # 8-byte Reload
	mov	qword ptr [rsp + 64], r10
	mov	qword ptr [rsp + 72], 0
	mov	r10, qword ptr [rsp + 104] # 8-byte Reload
	call	r10
	mov	qword ptr [rsp + 200], rax
	.cv_loc	6 1 208 0               # .\efimain.c:208:0
	mov	rax, qword ptr [rip + EfiBoot]
	mov	rax, qword ptr [rax + 72]
	mov	rcx, qword ptr [rsp + 176]
	call	rax
.Ltmp97:
.LBB6_21:
	.cv_loc	6 1 210 0               # .\efimain.c:210:0
	jmp	.LBB6_22
.Ltmp98:
.LBB6_22:
	.cv_loc	6 1 211 0               # .\efimain.c:211:0
	jmp	.LBB6_23
.Ltmp99:
.LBB6_23:
	.cv_loc	6 1 212 0               # .\efimain.c:212:0
	jmp	.LBB6_24
.Ltmp100:
.LBB6_24:
	.cv_loc	6 1 214 0               # .\efimain.c:214:0
	mov	ecx, 13
	call	BlockUntilKeyStroke
	.cv_loc	6 1 215 0               # .\efimain.c:215:0
	mov	rax, qword ptr [rsp + 200]
	mov	qword ptr [rsp + 224], rax
.LBB6_25:
	.cv_loc	6 1 216 0               # .\efimain.c:216:0
	mov	rax, qword ptr [rsp + 224]
	add	rsp, 232
	ret
.Ltmp101:
.Lfunc_end6:
	.seh_handlerdata
	.text
	.seh_endproc
                                        # -- End function
	.bss
	.globl	EfiBoot                 # @EfiBoot
	.p2align	3
EfiBoot:
	.quad	0

	.globl	StdIn                   # @StdIn
	.p2align	3
StdIn:
	.quad	0

	.globl	StdOut                  # @StdOut
	.p2align	3
StdOut:
	.quad	0

	.globl	StdErr                  # @StdErr
	.p2align	3
StdErr:
	.quad	0

	.globl	GraphicsOutput          # @GraphicsOutput
	.p2align	3
GraphicsOutput:
	.quad	0

	.globl	UnicodeCollation        # @UnicodeCollation
	.p2align	3
UnicodeCollation:
	.quad	0

	.data
	.globl	EfiGraphicsOutputGuid   # @EfiGraphicsOutputGuid
	.p2align	2
EfiGraphicsOutputGuid:
	.long	2420287966              # 0x9042a9de
	.short	9180                    # 0x23dc
	.short	19000                   # 0x4a38
	.ascii	"\226\373z\336\320\200Qj"

	.globl	EfiLoadedImageGuid      # @EfiLoadedImageGuid
	.p2align	2
EfiLoadedImageGuid:
	.long	1528508833              # 0x5b1b31a1
	.short	38242                   # 0x9562
	.short	4562                    # 0x11d2
	.ascii	"\216?\000\240\311ir;"

	.globl	EfiUnicodeCollationGuid # @EfiUnicodeCollationGuid
	.p2align	2
EfiUnicodeCollationGuid:
	.long	495308159               # 0x1d85cd7f
	.short	62525                   # 0xf43d
	.short	4562                    # 0x11d2
	.ascii	"\232\f\000\220'?\301M"

	.section	.rdata,"dr",discard,"??_C@_1DI@OIAGNBDD@?$AAM?$AAo?$AAd?$AAe?$AA?$DN?$AA?$CF?$AAd?$AA?5?$AAR?$AAe?$AAs?$AAo?$AAl?$AAu?$AAt?$AAi?$AAo?$AAn?$AA?3?$AA?5?$AA?$CF?$AAd?$AAx?$AA?$CF?$AAd?$AA?$AN?$AA?6?$AA?$AA@"
	.globl	"??_C@_1DI@OIAGNBDD@?$AAM?$AAo?$AAd?$AAe?$AA?$DN?$AA?$CF?$AAd?$AA?5?$AAR?$AAe?$AAs?$AAo?$AAl?$AAu?$AAt?$AAi?$AAo?$AAn?$AA?3?$AA?5?$AA?$CF?$AAd?$AAx?$AA?$CF?$AAd?$AA?$AN?$AA?6?$AA?$AA@" # @"??_C@_1DI@OIAGNBDD@?$AAM?$AAo?$AAd?$AAe?$AA?$DN?$AA?$CF?$AAd?$AA?5?$AAR?$AAe?$AAs?$AAo?$AAl?$AAu?$AAt?$AAi?$AAo?$AAn?$AA?3?$AA?5?$AA?$CF?$AAd?$AAx?$AA?$CF?$AAd?$AA?$AN?$AA?6?$AA?$AA@"
	.p2align	1
"??_C@_1DI@OIAGNBDD@?$AAM?$AAo?$AAd?$AAe?$AA?$DN?$AA?$CF?$AAd?$AA?5?$AAR?$AAe?$AAs?$AAo?$AAl?$AAu?$AAt?$AAi?$AAo?$AAn?$AA?3?$AA?5?$AA?$CF?$AAd?$AAx?$AA?$CF?$AAd?$AA?$AN?$AA?6?$AA?$AA@":
	.short	77                      # 0x4d
	.short	111                     # 0x6f
	.short	100                     # 0x64
	.short	101                     # 0x65
	.short	61                      # 0x3d
	.short	37                      # 0x25
	.short	100                     # 0x64
	.short	32                      # 0x20
	.short	82                      # 0x52
	.short	101                     # 0x65
	.short	115                     # 0x73
	.short	111                     # 0x6f
	.short	108                     # 0x6c
	.short	117                     # 0x75
	.short	116                     # 0x74
	.short	105                     # 0x69
	.short	111                     # 0x6f
	.short	110                     # 0x6e
	.short	58                      # 0x3a
	.short	32                      # 0x20
	.short	37                      # 0x25
	.short	100                     # 0x64
	.short	120                     # 0x78
	.short	37                      # 0x25
	.short	100                     # 0x64
	.short	13                      # 0xd
	.short	10                      # 0xa
	.short	0                       # 0x0

	.section	.rdata,"dr",discard,"??_C@_1DI@KNBDDLDL@?$AAC?$AAo?$AAn?$AAs?$AAo?$AAl?$AAe?$AA?5?$AAR?$AAe?$AAs?$AAo?$AAl?$AAu?$AAt?$AAi?$AAo?$AAn?$AA?3?$AA?5?$AA?$CF?$AAd?$AAx?$AA?$CF?$AAd?$AA?$AN?$AA?6?$AA?$AA@"
	.globl	"??_C@_1DI@KNBDDLDL@?$AAC?$AAo?$AAn?$AAs?$AAo?$AAl?$AAe?$AA?5?$AAR?$AAe?$AAs?$AAo?$AAl?$AAu?$AAt?$AAi?$AAo?$AAn?$AA?3?$AA?5?$AA?$CF?$AAd?$AAx?$AA?$CF?$AAd?$AA?$AN?$AA?6?$AA?$AA@" # @"??_C@_1DI@KNBDDLDL@?$AAC?$AAo?$AAn?$AAs?$AAo?$AAl?$AAe?$AA?5?$AAR?$AAe?$AAs?$AAo?$AAl?$AAu?$AAt?$AAi?$AAo?$AAn?$AA?3?$AA?5?$AA?$CF?$AAd?$AAx?$AA?$CF?$AAd?$AA?$AN?$AA?6?$AA?$AA@"
	.p2align	1
"??_C@_1DI@KNBDDLDL@?$AAC?$AAo?$AAn?$AAs?$AAo?$AAl?$AAe?$AA?5?$AAR?$AAe?$AAs?$AAo?$AAl?$AAu?$AAt?$AAi?$AAo?$AAn?$AA?3?$AA?5?$AA?$CF?$AAd?$AAx?$AA?$CF?$AAd?$AA?$AN?$AA?6?$AA?$AA@":
	.short	67                      # 0x43
	.short	111                     # 0x6f
	.short	110                     # 0x6e
	.short	115                     # 0x73
	.short	111                     # 0x6f
	.short	108                     # 0x6c
	.short	101                     # 0x65
	.short	32                      # 0x20
	.short	82                      # 0x52
	.short	101                     # 0x65
	.short	115                     # 0x73
	.short	111                     # 0x6f
	.short	108                     # 0x6c
	.short	117                     # 0x75
	.short	116                     # 0x74
	.short	105                     # 0x69
	.short	111                     # 0x6f
	.short	110                     # 0x6e
	.short	58                      # 0x3a
	.short	32                      # 0x20
	.short	37                      # 0x25
	.short	100                     # 0x64
	.short	120                     # 0x78
	.short	37                      # 0x25
	.short	100                     # 0x64
	.short	13                      # 0xd
	.short	10                      # 0xa
	.short	0                       # 0x0

	.section	.rdata,"dr",discard,"??_C@_1EI@BFDIABFG@?$AAL?$AAo?$AAc?$AAa?$AAt?$AAe?$AAd?$AA?5?$AAB?$AAi?$AAt?$AAm?$AAa?$AAp?$AA?$CB?$AA?5?$AAI?$AAm?$AAa?$AAg?$AAe?$AA?5?$AAS?$AAi?$AAz?$AAe?$AA?3?$AA?5?$AA?$CF?$AAd?$AAx?$AA?$CF@"
	.globl	"??_C@_1EI@BFDIABFG@?$AAL?$AAo?$AAc?$AAa?$AAt?$AAe?$AAd?$AA?5?$AAB?$AAi?$AAt?$AAm?$AAa?$AAp?$AA?$CB?$AA?5?$AAI?$AAm?$AAa?$AAg?$AAe?$AA?5?$AAS?$AAi?$AAz?$AAe?$AA?3?$AA?5?$AA?$CF?$AAd?$AAx?$AA?$CF@" # @"??_C@_1EI@BFDIABFG@?$AAL?$AAo?$AAc?$AAa?$AAt?$AAe?$AAd?$AA?5?$AAB?$AAi?$AAt?$AAm?$AAa?$AAp?$AA?$CB?$AA?5?$AAI?$AAm?$AAa?$AAg?$AAe?$AA?5?$AAS?$AAi?$AAz?$AAe?$AA?3?$AA?5?$AA?$CF?$AAd?$AAx?$AA?$CF@"
	.p2align	1
"??_C@_1EI@BFDIABFG@?$AAL?$AAo?$AAc?$AAa?$AAt?$AAe?$AAd?$AA?5?$AAB?$AAi?$AAt?$AAm?$AAa?$AAp?$AA?$CB?$AA?5?$AAI?$AAm?$AAa?$AAg?$AAe?$AA?5?$AAS?$AAi?$AAz?$AAe?$AA?3?$AA?5?$AA?$CF?$AAd?$AAx?$AA?$CF@":
	.short	76                      # 0x4c
	.short	111                     # 0x6f
	.short	99                      # 0x63
	.short	97                      # 0x61
	.short	116                     # 0x74
	.short	101                     # 0x65
	.short	100                     # 0x64
	.short	32                      # 0x20
	.short	66                      # 0x42
	.short	105                     # 0x69
	.short	116                     # 0x74
	.short	109                     # 0x6d
	.short	97                      # 0x61
	.short	112                     # 0x70
	.short	33                      # 0x21
	.short	32                      # 0x20
	.short	73                      # 0x49
	.short	109                     # 0x6d
	.short	97                      # 0x61
	.short	103                     # 0x67
	.short	101                     # 0x65
	.short	32                      # 0x20
	.short	83                      # 0x53
	.short	105                     # 0x69
	.short	122                     # 0x7a
	.short	101                     # 0x65
	.short	58                      # 0x3a
	.short	32                      # 0x20
	.short	37                      # 0x25
	.short	100                     # 0x64
	.short	120                     # 0x78
	.short	37                      # 0x25
	.short	100                     # 0x64
	.short	13                      # 0xd
	.short	10                      # 0xa
	.short	0                       # 0x0

	.section	.rdata,"dr",discard,"??_C@_1FO@OGPDCNAH@?$AAB?$AAi?$AAt?$AAm?$AAa?$AAp?$AA?5?$AAC?$AAo?$AAm?$AAp?$AAr?$AAe?$AAs?$AAs?$AAi?$AAo?$AAn?$AA?5?$AAA?$AAl?$AAg?$AAo?$AAr?$AAi?$AAt?$AAh?$AAm?$AA?5?$AAi?$AAs?$AA?5@"
	.globl	"??_C@_1FO@OGPDCNAH@?$AAB?$AAi?$AAt?$AAm?$AAa?$AAp?$AA?5?$AAC?$AAo?$AAm?$AAp?$AAr?$AAe?$AAs?$AAs?$AAi?$AAo?$AAn?$AA?5?$AAA?$AAl?$AAg?$AAo?$AAr?$AAi?$AAt?$AAh?$AAm?$AA?5?$AAi?$AAs?$AA?5@" # @"??_C@_1FO@OGPDCNAH@?$AAB?$AAi?$AAt?$AAm?$AAa?$AAp?$AA?5?$AAC?$AAo?$AAm?$AAp?$AAr?$AAe?$AAs?$AAs?$AAi?$AAo?$AAn?$AA?5?$AAA?$AAl?$AAg?$AAo?$AAr?$AAi?$AAt?$AAh?$AAm?$AA?5?$AAi?$AAs?$AA?5@"
	.p2align	1
"??_C@_1FO@OGPDCNAH@?$AAB?$AAi?$AAt?$AAm?$AAa?$AAp?$AA?5?$AAC?$AAo?$AAm?$AAp?$AAr?$AAe?$AAs?$AAs?$AAi?$AAo?$AAn?$AA?5?$AAA?$AAl?$AAg?$AAo?$AAr?$AAi?$AAt?$AAh?$AAm?$AA?5?$AAi?$AAs?$AA?5@":
	.short	66                      # 0x42
	.short	105                     # 0x69
	.short	116                     # 0x74
	.short	109                     # 0x6d
	.short	97                      # 0x61
	.short	112                     # 0x70
	.short	32                      # 0x20
	.short	67                      # 0x43
	.short	111                     # 0x6f
	.short	109                     # 0x6d
	.short	112                     # 0x70
	.short	114                     # 0x72
	.short	101                     # 0x65
	.short	115                     # 0x73
	.short	115                     # 0x73
	.short	105                     # 0x69
	.short	111                     # 0x6f
	.short	110                     # 0x6e
	.short	32                      # 0x20
	.short	65                      # 0x41
	.short	108                     # 0x6c
	.short	103                     # 0x67
	.short	111                     # 0x6f
	.short	114                     # 0x72
	.short	105                     # 0x69
	.short	116                     # 0x74
	.short	104                     # 0x68
	.short	109                     # 0x6d
	.short	32                      # 0x20
	.short	105                     # 0x69
	.short	115                     # 0x73
	.short	32                      # 0x20
	.short	117                     # 0x75
	.short	110                     # 0x6e
	.short	115                     # 0x73
	.short	117                     # 0x75
	.short	112                     # 0x70
	.short	112                     # 0x70
	.short	111                     # 0x6f
	.short	114                     # 0x72
	.short	116                     # 0x74
	.short	101                     # 0x65
	.short	100                     # 0x64
	.short	33                      # 0x21
	.short	13                      # 0xd
	.short	10                      # 0xa
	.short	0                       # 0x0

	.section	.rdata,"dr",discard,"??_C@_1GK@FHILJBFM@?$AAO?$AAn?$AAl?$AAy?$AA?5?$AA2?$AA4?$AA?9?$AAb?$AAi?$AAt?$AA?5?$AAT?$AAr?$AAu?$AAe?$AA?9?$AAC?$AAo?$AAl?$AAo?$AAr?$AA?5?$AAF?$AAo?$AAr?$AAm?$AAa?$AAt?$AA?5?$AAB?$AAi@"
	.globl	"??_C@_1GK@FHILJBFM@?$AAO?$AAn?$AAl?$AAy?$AA?5?$AA2?$AA4?$AA?9?$AAb?$AAi?$AAt?$AA?5?$AAT?$AAr?$AAu?$AAe?$AA?9?$AAC?$AAo?$AAl?$AAo?$AAr?$AA?5?$AAF?$AAo?$AAr?$AAm?$AAa?$AAt?$AA?5?$AAB?$AAi@" # @"??_C@_1GK@FHILJBFM@?$AAO?$AAn?$AAl?$AAy?$AA?5?$AA2?$AA4?$AA?9?$AAb?$AAi?$AAt?$AA?5?$AAT?$AAr?$AAu?$AAe?$AA?9?$AAC?$AAo?$AAl?$AAo?$AAr?$AA?5?$AAF?$AAo?$AAr?$AAm?$AAa?$AAt?$AA?5?$AAB?$AAi@"
	.p2align	1
"??_C@_1GK@FHILJBFM@?$AAO?$AAn?$AAl?$AAy?$AA?5?$AA2?$AA4?$AA?9?$AAb?$AAi?$AAt?$AA?5?$AAT?$AAr?$AAu?$AAe?$AA?9?$AAC?$AAo?$AAl?$AAo?$AAr?$AA?5?$AAF?$AAo?$AAr?$AAm?$AAa?$AAt?$AA?5?$AAB?$AAi@":
	.short	79                      # 0x4f
	.short	110                     # 0x6e
	.short	108                     # 0x6c
	.short	121                     # 0x79
	.short	32                      # 0x20
	.short	50                      # 0x32
	.short	52                      # 0x34
	.short	45                      # 0x2d
	.short	98                      # 0x62
	.short	105                     # 0x69
	.short	116                     # 0x74
	.short	32                      # 0x20
	.short	84                      # 0x54
	.short	114                     # 0x72
	.short	117                     # 0x75
	.short	101                     # 0x65
	.short	45                      # 0x2d
	.short	67                      # 0x43
	.short	111                     # 0x6f
	.short	108                     # 0x6c
	.short	111                     # 0x6f
	.short	114                     # 0x72
	.short	32                      # 0x20
	.short	70                      # 0x46
	.short	111                     # 0x6f
	.short	114                     # 0x72
	.short	109                     # 0x6d
	.short	97                      # 0x61
	.short	116                     # 0x74
	.short	32                      # 0x20
	.short	66                      # 0x42
	.short	105                     # 0x69
	.short	116                     # 0x74
	.short	109                     # 0x6d
	.short	97                      # 0x61
	.short	112                     # 0x70
	.short	32                      # 0x20
	.short	105                     # 0x69
	.short	115                     # 0x73
	.short	32                      # 0x20
	.short	115                     # 0x73
	.short	117                     # 0x75
	.short	112                     # 0x70
	.short	112                     # 0x70
	.short	111                     # 0x6f
	.short	114                     # 0x72
	.short	116                     # 0x74
	.short	101                     # 0x65
	.short	100                     # 0x64
	.short	33                      # 0x21
	.short	13                      # 0xd
	.short	10                      # 0xa
	.short	0                       # 0x0

	.section	.rdata,"dr",discard,"??_C@_1EO@BKJDOKCI@?$AAW?$AAe?$AA?5?$AAw?$AAi?$AAl?$AAl?$AA?5?$AAu?$AAs?$AAe?$AA?5?$AAG?$AAr?$AAa?$AAp?$AAh?$AAi?$AAc?$AAs?$AA?5?$AAO?$AAu?$AAt?$AAp?$AAu?$AAt?$AA?5?$AAM?$AAo?$AAd?$AAe@"
	.globl	"??_C@_1EO@BKJDOKCI@?$AAW?$AAe?$AA?5?$AAw?$AAi?$AAl?$AAl?$AA?5?$AAu?$AAs?$AAe?$AA?5?$AAG?$AAr?$AAa?$AAp?$AAh?$AAi?$AAc?$AAs?$AA?5?$AAO?$AAu?$AAt?$AAp?$AAu?$AAt?$AA?5?$AAM?$AAo?$AAd?$AAe@" # @"??_C@_1EO@BKJDOKCI@?$AAW?$AAe?$AA?5?$AAw?$AAi?$AAl?$AAl?$AA?5?$AAu?$AAs?$AAe?$AA?5?$AAG?$AAr?$AAa?$AAp?$AAh?$AAi?$AAc?$AAs?$AA?5?$AAO?$AAu?$AAt?$AAp?$AAu?$AAt?$AA?5?$AAM?$AAo?$AAd?$AAe@"
	.p2align	1
"??_C@_1EO@BKJDOKCI@?$AAW?$AAe?$AA?5?$AAw?$AAi?$AAl?$AAl?$AA?5?$AAu?$AAs?$AAe?$AA?5?$AAG?$AAr?$AAa?$AAp?$AAh?$AAi?$AAc?$AAs?$AA?5?$AAO?$AAu?$AAt?$AAp?$AAu?$AAt?$AA?5?$AAM?$AAo?$AAd?$AAe@":
	.short	87                      # 0x57
	.short	101                     # 0x65
	.short	32                      # 0x20
	.short	119                     # 0x77
	.short	105                     # 0x69
	.short	108                     # 0x6c
	.short	108                     # 0x6c
	.short	32                      # 0x20
	.short	117                     # 0x75
	.short	115                     # 0x73
	.short	101                     # 0x65
	.short	32                      # 0x20
	.short	71                      # 0x47
	.short	114                     # 0x72
	.short	97                      # 0x61
	.short	112                     # 0x70
	.short	104                     # 0x68
	.short	105                     # 0x69
	.short	99                      # 0x63
	.short	115                     # 0x73
	.short	32                      # 0x20
	.short	79                      # 0x4f
	.short	117                     # 0x75
	.short	116                     # 0x74
	.short	112                     # 0x70
	.short	117                     # 0x75
	.short	116                     # 0x74
	.short	32                      # 0x20
	.short	77                      # 0x4d
	.short	111                     # 0x6f
	.short	100                     # 0x64
	.short	101                     # 0x65
	.short	32                      # 0x20
	.short	37                      # 0x25
	.short	100                     # 0x64
	.short	33                      # 0x21
	.short	13                      # 0xd
	.short	10                      # 0xa
	.short	0                       # 0x0

	.section	.rdata,"dr",discard,"??_C@_1IE@PNCJCHAH@?$AAY?$AAo?$AAu?$AAr?$AA?5?$AAG?$AAr?$AAa?$AAp?$AAh?$AAi?$AAc?$AAs?$AA?5?$AAA?$AAd?$AAa?$AAp?$AAt?$AAe?$AAr?$AA?5?$AAd?$AAo?$AAe?$AAs?$AA?5?$AAn?$AAo?$AAt?$AA?5?$AAs@"
	.globl	"??_C@_1IE@PNCJCHAH@?$AAY?$AAo?$AAu?$AAr?$AA?5?$AAG?$AAr?$AAa?$AAp?$AAh?$AAi?$AAc?$AAs?$AA?5?$AAA?$AAd?$AAa?$AAp?$AAt?$AAe?$AAr?$AA?5?$AAd?$AAo?$AAe?$AAs?$AA?5?$AAn?$AAo?$AAt?$AA?5?$AAs@" # @"??_C@_1IE@PNCJCHAH@?$AAY?$AAo?$AAu?$AAr?$AA?5?$AAG?$AAr?$AAa?$AAp?$AAh?$AAi?$AAc?$AAs?$AA?5?$AAA?$AAd?$AAa?$AAp?$AAt?$AAe?$AAr?$AA?5?$AAd?$AAo?$AAe?$AAs?$AA?5?$AAn?$AAo?$AAt?$AA?5?$AAs@"
	.p2align	1
"??_C@_1IE@PNCJCHAH@?$AAY?$AAo?$AAu?$AAr?$AA?5?$AAG?$AAr?$AAa?$AAp?$AAh?$AAi?$AAc?$AAs?$AA?5?$AAA?$AAd?$AAa?$AAp?$AAt?$AAe?$AAr?$AA?5?$AAd?$AAo?$AAe?$AAs?$AA?5?$AAn?$AAo?$AAt?$AA?5?$AAs@":
	.short	89                      # 0x59
	.short	111                     # 0x6f
	.short	117                     # 0x75
	.short	114                     # 0x72
	.short	32                      # 0x20
	.short	71                      # 0x47
	.short	114                     # 0x72
	.short	97                      # 0x61
	.short	112                     # 0x70
	.short	104                     # 0x68
	.short	105                     # 0x69
	.short	99                      # 0x63
	.short	115                     # 0x73
	.short	32                      # 0x20
	.short	65                      # 0x41
	.short	100                     # 0x64
	.short	97                      # 0x61
	.short	112                     # 0x70
	.short	116                     # 0x74
	.short	101                     # 0x65
	.short	114                     # 0x72
	.short	32                      # 0x20
	.short	100                     # 0x64
	.short	111                     # 0x6f
	.short	101                     # 0x65
	.short	115                     # 0x73
	.short	32                      # 0x20
	.short	110                     # 0x6e
	.short	111                     # 0x6f
	.short	116                     # 0x74
	.short	32                      # 0x20
	.short	115                     # 0x73
	.short	117                     # 0x75
	.short	112                     # 0x70
	.short	112                     # 0x70
	.short	111                     # 0x6f
	.short	114                     # 0x72
	.short	116                     # 0x74
	.short	32                      # 0x20
	.short	116                     # 0x74
	.short	104                     # 0x68
	.short	101                     # 0x65
	.short	32                      # 0x20
	.short	114                     # 0x72
	.short	101                     # 0x65
	.short	113                     # 0x71
	.short	117                     # 0x75
	.short	105                     # 0x69
	.short	114                     # 0x72
	.short	101                     # 0x65
	.short	100                     # 0x64
	.short	32                      # 0x20
	.short	114                     # 0x72
	.short	101                     # 0x65
	.short	115                     # 0x73
	.short	111                     # 0x6f
	.short	108                     # 0x6c
	.short	117                     # 0x75
	.short	116                     # 0x74
	.short	105                     # 0x69
	.short	111                     # 0x6f
	.short	110                     # 0x6e
	.short	33                      # 0x21
	.short	13                      # 0xd
	.short	10                      # 0xa
	.short	0                       # 0x0

	.section	.rdata,"dr",discard,"??_C@_1EC@GHGLIHMM@?$AAP?$AAr?$AAe?$AAs?$AAs?$AA?5?$AAE?$AAn?$AAt?$AAe?$AAr?$AA?5?$AAk?$AAe?$AAy?$AA?5?$AAt?$AAo?$AA?5?$AAc?$AAo?$AAn?$AAt?$AAi?$AAn?$AAu?$AAe?$AA?4?$AA?4?$AA?4?$AA?$AN?$AA?6@"
	.globl	"??_C@_1EC@GHGLIHMM@?$AAP?$AAr?$AAe?$AAs?$AAs?$AA?5?$AAE?$AAn?$AAt?$AAe?$AAr?$AA?5?$AAk?$AAe?$AAy?$AA?5?$AAt?$AAo?$AA?5?$AAc?$AAo?$AAn?$AAt?$AAi?$AAn?$AAu?$AAe?$AA?4?$AA?4?$AA?4?$AA?$AN?$AA?6@" # @"??_C@_1EC@GHGLIHMM@?$AAP?$AAr?$AAe?$AAs?$AAs?$AA?5?$AAE?$AAn?$AAt?$AAe?$AAr?$AA?5?$AAk?$AAe?$AAy?$AA?5?$AAt?$AAo?$AA?5?$AAc?$AAo?$AAn?$AAt?$AAi?$AAn?$AAu?$AAe?$AA?4?$AA?4?$AA?4?$AA?$AN?$AA?6@"
	.p2align	1
"??_C@_1EC@GHGLIHMM@?$AAP?$AAr?$AAe?$AAs?$AAs?$AA?5?$AAE?$AAn?$AAt?$AAe?$AAr?$AA?5?$AAk?$AAe?$AAy?$AA?5?$AAt?$AAo?$AA?5?$AAc?$AAo?$AAn?$AAt?$AAi?$AAn?$AAu?$AAe?$AA?4?$AA?4?$AA?4?$AA?$AN?$AA?6@":
	.short	80                      # 0x50
	.short	114                     # 0x72
	.short	101                     # 0x65
	.short	115                     # 0x73
	.short	115                     # 0x73
	.short	32                      # 0x20
	.short	69                      # 0x45
	.short	110                     # 0x6e
	.short	116                     # 0x74
	.short	101                     # 0x65
	.short	114                     # 0x72
	.short	32                      # 0x20
	.short	107                     # 0x6b
	.short	101                     # 0x65
	.short	121                     # 0x79
	.short	32                      # 0x20
	.short	116                     # 0x74
	.short	111                     # 0x6f
	.short	32                      # 0x20
	.short	99                      # 0x63
	.short	111                     # 0x6f
	.short	110                     # 0x6e
	.short	116                     # 0x74
	.short	105                     # 0x69
	.short	110                     # 0x6e
	.short	117                     # 0x75
	.short	101                     # 0x65
	.short	46                      # 0x2e
	.short	46                      # 0x2e
	.short	46                      # 0x2e
	.short	13                      # 0xd
	.short	10                      # 0xa
	.short	0                       # 0x0

	.section	.drectve,"yn"
	.ascii	" /DEFAULTLIB:libcmt.lib"
	.ascii	" /DEFAULTLIB:oldnames.lib"