	.text
	.def	 @feat.00;
	.scl	3;
	.type	0;
	.endef
	.globl	@feat.00
.set @feat.00, 0
	.intel_syntax noprefix
	.file	"string.c"
	.def	 FillMemory;
	.scl	2;
	.type	32;
	.endef
	.globl	FillMemory              # -- Begin function FillMemory
	.p2align	4, 0x90
FillMemory:                             # @FillMemory
.Lfunc_begin0:
	.cv_func_id 0
	.cv_file	1 "D:\\Projects\\HelloUefiBmpRes\\string.c" "B6E477DEB9E376FD6D1F7D813425F6DF" 1
	.cv_loc	0 1 6 0                 # .\string.c:6:0
.seh_proc FillMemory
# %bb.0:
	sub	rsp, 56
	.seh_stackalloc 56
	.seh_endprologue
	mov	qword ptr [rsp + 48], r8
	mov	byte ptr [rsp + 47], dl
	mov	qword ptr [rsp + 32], rcx
.Ltmp0:
	.cv_loc	0 1 7 0                 # .\string.c:7:0
	mov	rax, qword ptr [rip + EfiBoot]
	mov	rax, qword ptr [rax + 360]
	mov	r8b, byte ptr [rsp + 47]
	mov	rdx, qword ptr [rsp + 48]
	mov	rcx, qword ptr [rsp + 32]
	call	rax
	nop
	add	rsp, 56
	ret
.Ltmp1:
.Lfunc_end0:
	.seh_handlerdata
	.text
	.seh_endproc
                                        # -- End function
	.def	 StringAnsiToUnicode;
	.scl	2;
	.type	32;
	.endef
	.globl	StringAnsiToUnicode     # -- Begin function StringAnsiToUnicode
	.p2align	4, 0x90
StringAnsiToUnicode:                    # @StringAnsiToUnicode
.Lfunc_begin1:
	.cv_func_id 1
	.cv_loc	1 1 11 0                # .\string.c:11:0
.seh_proc StringAnsiToUnicode
# %bb.0:
	sub	rsp, 56
	.seh_stackalloc 56
	.seh_endprologue
	mov	qword ptr [rsp + 48], r8
	mov	qword ptr [rsp + 40], rdx
	mov	qword ptr [rsp + 32], rcx
.Ltmp2:
	.cv_loc	1 1 12 0                # .\string.c:12:0
	mov	rax, qword ptr [rip + UnicodeCollation]
	mov	rax, qword ptr [rax + 32]
	mov	r9, qword ptr [rsp + 32]
	mov	r8, qword ptr [rsp + 40]
	mov	rdx, qword ptr [rsp + 48]
	mov	rcx, qword ptr [rip + UnicodeCollation]
	call	rax
	nop
	add	rsp, 56
	ret
.Ltmp3:
.Lfunc_end1:
	.seh_handlerdata
	.text
	.seh_endproc
                                        # -- End function
	.def	 StringCopyNW;
	.scl	2;
	.type	32;
	.endef
	.globl	StringCopyNW            # -- Begin function StringCopyNW
	.p2align	4, 0x90
StringCopyNW:                           # @StringCopyNW
.Lfunc_begin2:
	.cv_func_id 2
	.cv_loc	2 1 17 0                # .\string.c:17:0
.seh_proc StringCopyNW
# %bb.0:
	sub	rsp, 32
	.seh_stackalloc 32
	.seh_endprologue
	mov	qword ptr [rsp + 24], r8
	mov	qword ptr [rsp + 16], rdx
	mov	qword ptr [rsp + 8], rcx
.Ltmp4:
	.cv_loc	2 1 18 0                # .\string.c:18:0
	mov	qword ptr [rsp], 0
.LBB2_1:                                # =>This Inner Loop Header: Depth=1
	mov	rax, qword ptr [rsp]
	cmp	rax, qword ptr [rsp + 24]
	jae	.LBB2_6
# %bb.2:                                #   in Loop: Header=BB2_1 Depth=1
.Ltmp5:
	.cv_loc	2 1 20 0                # .\string.c:20:0
	mov	rax, qword ptr [rsp + 16]
	mov	rcx, qword ptr [rsp]
	mov	dx, word ptr [rax + 2*rcx]
	mov	rax, qword ptr [rsp + 8]
	mov	rcx, qword ptr [rsp]
	mov	word ptr [rax + 2*rcx], dx
	.cv_loc	2 1 21 0                # .\string.c:21:0
	mov	rax, qword ptr [rsp + 16]
	mov	rcx, qword ptr [rsp]
	movzx	r8d, word ptr [rax + 2*rcx]
	cmp	r8d, 0
	jne	.LBB2_4
# %bb.3:
.Ltmp6:
	.cv_loc	2 1 21 0                # .\string.c:21:0
	jmp	.LBB2_6
.Ltmp7:
.LBB2_4:                                #   in Loop: Header=BB2_1 Depth=1
	.cv_loc	2 1 22 0                # .\string.c:22:0
	jmp	.LBB2_5
.Ltmp8:
.LBB2_5:                                #   in Loop: Header=BB2_1 Depth=1
	.cv_loc	2 1 18 0                # .\string.c:18:0
	mov	rax, qword ptr [rsp]
	add	rax, 1
	mov	qword ptr [rsp], rax
	jmp	.LBB2_1
.Ltmp9:
.LBB2_6:
	.cv_loc	2 1 23 0                # .\string.c:23:0
	mov	rax, qword ptr [rsp + 8]
	add	rsp, 32
	ret
.Ltmp10:
.Lfunc_end2:
	.seh_handlerdata
	.text
	.seh_endproc
                                        # -- End function
	.def	 StringLengthW;
	.scl	2;
	.type	32;
	.endef
	.globl	StringLengthW           # -- Begin function StringLengthW
	.p2align	4, 0x90
StringLengthW:                          # @StringLengthW
.Lfunc_begin3:
	.cv_func_id 3
	.cv_loc	3 1 28 0                # .\string.c:28:0
.seh_proc StringLengthW
# %bb.0:
	sub	rsp, 16
	.seh_stackalloc 16
	.seh_endprologue
	mov	qword ptr [rsp + 8], rcx
.Ltmp11:
	.cv_loc	3 1 29 0                # .\string.c:29:0
	mov	qword ptr [rsp], 0
.LBB3_1:                                # =>This Inner Loop Header: Depth=1
	.cv_loc	3 1 30 0                # .\string.c:30:0
	mov	rax, qword ptr [rsp + 8]
	mov	rcx, qword ptr [rsp]
	mov	rdx, rcx
	add	rdx, 1
	mov	qword ptr [rsp], rdx
	cmp	word ptr [rax + 2*rcx], 0
	je	.LBB3_3
# %bb.2:                                #   in Loop: Header=BB3_1 Depth=1
	jmp	.LBB3_1
.LBB3_3:
	.cv_loc	3 1 31 0                # .\string.c:31:0
	mov	rax, qword ptr [rsp]
	sub	rax, 1
	add	rsp, 16
	ret
.Ltmp12:
.Lfunc_end3:
	.seh_handlerdata
	.text
	.seh_endproc
                                        # -- End function
	.def	 StringReverseW;
	.scl	2;
	.type	32;
	.endef
	.globl	StringReverseW          # -- Begin function StringReverseW
	.p2align	4, 0x90
StringReverseW:                         # @StringReverseW
.Lfunc_begin4:
	.cv_func_id 4
	.cv_loc	4 1 35 0                # .\string.c:35:0
.seh_proc StringReverseW
# %bb.0:
	sub	rsp, 24
	.seh_stackalloc 24
	.seh_endprologue
	mov	qword ptr [rsp + 16], rcx
.Ltmp13:
	.cv_loc	4 1 36 0                # .\string.c:36:0
	mov	rax, qword ptr [rsp + 16]
	mov	qword ptr [rsp + 8], rax
.LBB4_1:                                # =>This Inner Loop Header: Depth=1
	.cv_loc	4 1 38 0                # .\string.c:38:0
	mov	rax, qword ptr [rsp + 16]
	mov	rcx, rax
	add	rcx, 2
	mov	qword ptr [rsp + 16], rcx
	cmp	word ptr [rax], 0
	je	.LBB4_3
# %bb.2:                                #   in Loop: Header=BB4_1 Depth=1
	jmp	.LBB4_1
.LBB4_3:
	.cv_loc	4 1 39 0                # .\string.c:39:0
	mov	rax, qword ptr [rsp + 16]
	add	rax, -4
	mov	qword ptr [rsp + 16], rax
.LBB4_4:                                # =>This Inner Loop Header: Depth=1
	.cv_loc	4 1 40 0                # .\string.c:40:0
	mov	rax, qword ptr [rsp + 8]
	cmp	rax, qword ptr [rsp + 16]
	jae	.LBB4_6
# %bb.5:                                #   in Loop: Header=BB4_4 Depth=1
.Ltmp14:
	.cv_loc	4 1 42 0                # .\string.c:42:0
	mov	rax, qword ptr [rsp + 8]
	mov	cx, word ptr [rax]
	mov	word ptr [rsp + 6], cx
	.cv_loc	4 1 43 0                # .\string.c:43:0
	mov	rax, qword ptr [rsp + 16]
	mov	cx, word ptr [rax]
	mov	rax, qword ptr [rsp + 8]
	mov	rdx, rax
	add	rdx, 2
	mov	qword ptr [rsp + 8], rdx
	mov	word ptr [rax], cx
	.cv_loc	4 1 44 0                # .\string.c:44:0
	mov	cx, word ptr [rsp + 6]
	mov	rax, qword ptr [rsp + 16]
	mov	rdx, rax
	add	rdx, -2
	mov	qword ptr [rsp + 16], rdx
	mov	word ptr [rax], cx
.Ltmp15:
	.cv_loc	4 1 40 0                # .\string.c:40:0
	jmp	.LBB4_4
.LBB4_6:
	.cv_loc	4 1 46 0                # .\string.c:46:0
	add	rsp, 24
	ret
.Ltmp16:
.Lfunc_end4:
	.seh_handlerdata
	.text
	.seh_endproc
                                        # -- End function
	.def	 StringCompareW;
	.scl	2;
	.type	32;
	.endef
	.globl	StringCompareW          # -- Begin function StringCompareW
	.p2align	4, 0x90
StringCompareW:                         # @StringCompareW
.Lfunc_begin5:
	.cv_func_id 5
	.cv_loc	5 1 49 0                # .\string.c:49:0
.seh_proc StringCompareW
# %bb.0:
	sub	rsp, 40
	.seh_stackalloc 40
	.seh_endprologue
	mov	qword ptr [rsp + 24], rdx
	mov	qword ptr [rsp + 16], rcx
.Ltmp17:
	.cv_loc	5 1 50 0                # .\string.c:50:0
	mov	qword ptr [rsp + 8], 0
.LBB5_1:                                # =>This Inner Loop Header: Depth=1
	.cv_loc	5 1 51 0                # .\string.c:51:0
	mov	rax, qword ptr [rsp + 16]
	mov	rcx, qword ptr [rsp + 8]
	movzx	edx, word ptr [rax + 2*rcx]
	cmp	edx, 0
	mov	r8b, 1
	mov	byte ptr [rsp + 7], r8b # 1-byte Spill
	jne	.LBB5_3
# %bb.2:                                #   in Loop: Header=BB5_1 Depth=1
	mov	rax, qword ptr [rsp + 24]
	mov	rcx, qword ptr [rsp + 8]
	movzx	edx, word ptr [rax + 2*rcx]
	cmp	edx, 0
	setne	r8b
	mov	byte ptr [rsp + 7], r8b # 1-byte Spill
.LBB5_3:                                #   in Loop: Header=BB5_1 Depth=1
	mov	al, byte ptr [rsp + 7]  # 1-byte Reload
	test	al, 1
	jne	.LBB5_4
	jmp	.LBB5_11
.LBB5_4:                                #   in Loop: Header=BB5_1 Depth=1
.Ltmp18:
	.cv_loc	5 1 53 0                # .\string.c:53:0
	mov	rax, qword ptr [rsp + 16]
	mov	rcx, qword ptr [rsp + 8]
	movzx	edx, word ptr [rax + 2*rcx]
	mov	rax, qword ptr [rsp + 24]
	mov	rcx, qword ptr [rsp + 8]
	movzx	r8d, word ptr [rax + 2*rcx]
	cmp	edx, r8d
	jle	.LBB5_6
# %bb.5:
.Ltmp19:
	.cv_loc	5 1 54 0                # .\string.c:54:0
	mov	dword ptr [rsp + 36], 1
	jmp	.LBB5_12
.LBB5_6:                                #   in Loop: Header=BB5_1 Depth=1
	.cv_loc	5 1 55 0                # .\string.c:55:0
	mov	rax, qword ptr [rsp + 16]
	mov	rcx, qword ptr [rsp + 8]
	movzx	edx, word ptr [rax + 2*rcx]
	mov	rax, qword ptr [rsp + 24]
	mov	rcx, qword ptr [rsp + 8]
	movzx	r8d, word ptr [rax + 2*rcx]
	cmp	edx, r8d
	jge	.LBB5_8
# %bb.7:
.Ltmp20:
	.cv_loc	5 1 56 0                # .\string.c:56:0
	mov	dword ptr [rsp + 36], -1
	jmp	.LBB5_12
.LBB5_8:                                #   in Loop: Header=BB5_1 Depth=1
	.cv_loc	5 1 58 0                # .\string.c:58:0
	mov	rax, qword ptr [rsp + 8]
	add	rax, 1
	mov	qword ptr [rsp + 8], rax
# %bb.9:                                #   in Loop: Header=BB5_1 Depth=1
	.cv_loc	5 1 55 0                # .\string.c:55:0
	jmp	.LBB5_10
.Ltmp21:
.LBB5_10:                               #   in Loop: Header=BB5_1 Depth=1
	.cv_loc	5 1 51 0                # .\string.c:51:0
	jmp	.LBB5_1
.LBB5_11:
	.cv_loc	5 1 60 0                # .\string.c:60:0
	mov	dword ptr [rsp + 36], 0
.LBB5_12:
	.cv_loc	5 1 61 0                # .\string.c:61:0
	mov	eax, dword ptr [rsp + 36]
	add	rsp, 40
	ret
.Ltmp22:
.Lfunc_end5:
	.seh_handlerdata
	.text
	.seh_endproc
                                        # -- End function
	.def	 IntegerToDecimalW;
	.scl	2;
	.type	32;
	.endef
	.globl	IntegerToDecimalW       # -- Begin function IntegerToDecimalW
	.p2align	4, 0x90
IntegerToDecimalW:                      # @IntegerToDecimalW
.Lfunc_begin6:
	.cv_func_id 6
	.cv_loc	6 1 65 0                # .\string.c:65:0
.seh_proc IntegerToDecimalW
# %bb.0:
	sub	rsp, 56
	.seh_stackalloc 56
	.seh_endprologue
	mov	qword ptr [rsp + 48], rdx
	mov	dword ptr [rsp + 44], ecx
.Ltmp23:
	.cv_loc	6 1 66 0                # .\string.c:66:0
	mov	eax, dword ptr [rsp + 44]
	mov	dword ptr [rsp + 40], eax
	.cv_loc	6 1 67 0                # .\string.c:67:0
	mov	dword ptr [rsp + 36], 0
	.cv_loc	6 1 68 0                # .\string.c:68:0
	cmp	dword ptr [rsp + 40], 0
	jne	.LBB6_2
# %bb.1:
.Ltmp24:
	.cv_loc	6 1 68 0                # .\string.c:68:0
	mov	rax, qword ptr [rsp + 48]
	mov	ecx, dword ptr [rsp + 36]
	mov	edx, ecx
	add	edx, 1
	mov	dword ptr [rsp + 36], edx
	movsxd	r8, ecx
	mov	word ptr [rax + 2*r8], 48
.Ltmp25:
.LBB6_2:
	.cv_loc	6 1 69 0                # .\string.c:69:0
	jmp	.LBB6_3
.LBB6_3:                                # =>This Inner Loop Header: Depth=1
.Ltmp26:
	.cv_loc	6 1 69 0                # .\string.c:69:0
	cmp	dword ptr [rsp + 40], 0
	je	.LBB6_6
# %bb.4:                                #   in Loop: Header=BB6_3 Depth=1
.Ltmp27:
	.cv_loc	6 1 71 0                # .\string.c:71:0
	mov	eax, dword ptr [rsp + 40]
	cdq
	mov	ecx, 10
	idiv	ecx
	mov	dword ptr [rsp + 32], edx
	.cv_loc	6 1 72 0                # .\string.c:72:0
	mov	ecx, dword ptr [rsp + 32]
	add	ecx, 48
                                        # kill: def $cx killed $cx killed $ecx
	mov	r8, qword ptr [rsp + 48]
	mov	edx, dword ptr [rsp + 36]
	mov	r9d, edx
	add	r9d, 1
	mov	dword ptr [rsp + 36], r9d
	movsxd	r10, edx
	mov	word ptr [r8 + 2*r10], cx
.Ltmp28:
# %bb.5:                                #   in Loop: Header=BB6_3 Depth=1
	.cv_loc	6 1 69 0                # .\string.c:69:0
	mov	eax, dword ptr [rsp + 40]
	cdq
	mov	ecx, 10
	idiv	ecx
	mov	dword ptr [rsp + 40], eax
	jmp	.LBB6_3
.Ltmp29:
.LBB6_6:
	.cv_loc	6 1 74 0                # .\string.c:74:0
	mov	rax, qword ptr [rsp + 48]
	movsxd	rcx, dword ptr [rsp + 36]
	mov	word ptr [rax + 2*rcx], 0
	.cv_loc	6 1 75 0                # .\string.c:75:0
	mov	rcx, qword ptr [rsp + 48]
	call	StringReverseW
	.cv_loc	6 1 76 0                # .\string.c:76:0
	nop
	add	rsp, 56
	ret
.Ltmp30:
.Lfunc_end6:
	.seh_handlerdata
	.text
	.seh_endproc
                                        # -- End function
	.def	 IntegerToDecimalW64;
	.scl	2;
	.type	32;
	.endef
	.globl	IntegerToDecimalW64     # -- Begin function IntegerToDecimalW64
	.p2align	4, 0x90
IntegerToDecimalW64:                    # @IntegerToDecimalW64
.Lfunc_begin7:
	.cv_func_id 7
	.cv_loc	7 1 79 0                # .\string.c:79:0
.seh_proc IntegerToDecimalW64
# %bb.0:
	sub	rsp, 72
	.seh_stackalloc 72
	.seh_endprologue
	mov	qword ptr [rsp + 64], rdx
	mov	qword ptr [rsp + 56], rcx
.Ltmp31:
	.cv_loc	7 1 80 0                # .\string.c:80:0
	mov	rax, qword ptr [rsp + 56]
                                        # kill: def $eax killed $eax killed $rax
	mov	dword ptr [rsp + 52], eax
	.cv_loc	7 1 81 0                # .\string.c:81:0
	mov	dword ptr [rsp + 48], 0
	.cv_loc	7 1 82 0                # .\string.c:82:0
	cmp	dword ptr [rsp + 52], 0
	jne	.LBB7_2
# %bb.1:
.Ltmp32:
	.cv_loc	7 1 82 0                # .\string.c:82:0
	mov	rax, qword ptr [rsp + 64]
	mov	ecx, dword ptr [rsp + 48]
	mov	edx, ecx
	add	edx, 1
	mov	dword ptr [rsp + 48], edx
	movsxd	r8, ecx
	mov	word ptr [rax + 2*r8], 48
.Ltmp33:
.LBB7_2:
	.cv_loc	7 1 83 0                # .\string.c:83:0
	jmp	.LBB7_3
.LBB7_3:                                # =>This Inner Loop Header: Depth=1
.Ltmp34:
	.cv_loc	7 1 83 0                # .\string.c:83:0
	cmp	dword ptr [rsp + 52], 0
	je	.LBB7_6
# %bb.4:                                #   in Loop: Header=BB7_3 Depth=1
.Ltmp35:
	.cv_loc	7 1 85 0                # .\string.c:85:0
	mov	eax, dword ptr [rsp + 52]
	cdq
	mov	ecx, 10
	idiv	ecx
	mov	dword ptr [rsp + 44], edx
	.cv_loc	7 1 86 0                # .\string.c:86:0
	mov	ecx, dword ptr [rsp + 44]
	add	ecx, 48
                                        # kill: def $cx killed $cx killed $ecx
	mov	r8, qword ptr [rsp + 64]
	mov	edx, dword ptr [rsp + 48]
	mov	r9d, edx
	add	r9d, 1
	mov	dword ptr [rsp + 48], r9d
	movsxd	r10, edx
	mov	word ptr [r8 + 2*r10], cx
.Ltmp36:
# %bb.5:                                #   in Loop: Header=BB7_3 Depth=1
	.cv_loc	7 1 83 0                # .\string.c:83:0
	mov	eax, dword ptr [rsp + 52]
	cdq
	mov	ecx, 10
	idiv	ecx
	mov	dword ptr [rsp + 52], eax
	jmp	.LBB7_3
.Ltmp37:
.LBB7_6:
	.cv_loc	7 1 88 0                # .\string.c:88:0
	mov	rax, qword ptr [rsp + 64]
	movsxd	rcx, dword ptr [rsp + 48]
	mov	word ptr [rax + 2*rcx], 0
	.cv_loc	7 1 89 0                # .\string.c:89:0
	mov	rcx, qword ptr [rsp + 64]
	call	StringReverseW
	.cv_loc	7 1 90 0                # .\string.c:90:0
	nop
	add	rsp, 72
	ret
.Ltmp38:
.Lfunc_end7:
	.seh_handlerdata
	.text
	.seh_endproc
                                        # -- End function
	.def	 IntegerToHexW;
	.scl	2;
	.type	32;
	.endef
	.globl	IntegerToHexW           # -- Begin function IntegerToHexW
	.p2align	4, 0x90
IntegerToHexW:                          # @IntegerToHexW
.Lfunc_begin8:
	.cv_func_id 8
	.cv_loc	8 1 93 0                # .\string.c:93:0
.seh_proc IntegerToHexW
# %bb.0:
	sub	rsp, 104
	.seh_stackalloc 104
	.seh_endprologue
	mov	qword ptr [rsp + 96], rdx
	mov	dword ptr [rsp + 92], ecx
.Ltmp39:
	.cv_loc	8 1 94 0                # .\string.c:94:0
	mov	rax, qword ptr [rip + .L__const.IntegerToHexW.hp]
	mov	qword ptr [rsp + 48], rax
	mov	rax, qword ptr [rip + .L__const.IntegerToHexW.hp+8]
	mov	qword ptr [rsp + 56], rax
	mov	rax, qword ptr [rip + .L__const.IntegerToHexW.hp+16]
	mov	qword ptr [rsp + 64], rax
	mov	rax, qword ptr [rip + .L__const.IntegerToHexW.hp+24]
	mov	qword ptr [rsp + 72], rax
	.cv_loc	8 1 95 0                # .\string.c:95:0
	mov	ecx, dword ptr [rsp + 92]
	mov	dword ptr [rsp + 44], ecx
	.cv_loc	8 1 96 0                # .\string.c:96:0
	mov	dword ptr [rsp + 40], 0
	.cv_loc	8 1 97 0                # .\string.c:97:0
	cmp	dword ptr [rsp + 44], 0
	jne	.LBB8_2
# %bb.1:
.Ltmp40:
	.cv_loc	8 1 97 0                # .\string.c:97:0
	mov	ax, word ptr [rsp + 48]
	mov	rcx, qword ptr [rsp + 96]
	mov	edx, dword ptr [rsp + 40]
	mov	r8d, edx
	add	r8d, 1
	mov	dword ptr [rsp + 40], r8d
	movsxd	r9, edx
	mov	word ptr [rcx + 2*r9], ax
.Ltmp41:
.LBB8_2:
	.cv_loc	8 1 98 0                # .\string.c:98:0
	jmp	.LBB8_3
.LBB8_3:                                # =>This Inner Loop Header: Depth=1
.Ltmp42:
	.cv_loc	8 1 98 0                # .\string.c:98:0
	cmp	dword ptr [rsp + 44], 0
	je	.LBB8_6
# %bb.4:                                #   in Loop: Header=BB8_3 Depth=1
.Ltmp43:
	.cv_loc	8 1 100 0               # .\string.c:100:0
	mov	eax, dword ptr [rsp + 44]
	and	eax, 15
	mov	dword ptr [rsp + 36], eax
	.cv_loc	8 1 101 0               # .\string.c:101:0
	movsxd	rcx, dword ptr [rsp + 36]
	mov	dx, word ptr [rsp + 2*rcx + 48]
	mov	rcx, qword ptr [rsp + 96]
	mov	eax, dword ptr [rsp + 40]
	mov	r8d, eax
	add	r8d, 1
	mov	dword ptr [rsp + 40], r8d
	movsxd	r9, eax
	mov	word ptr [rcx + 2*r9], dx
.Ltmp44:
# %bb.5:                                #   in Loop: Header=BB8_3 Depth=1
	.cv_loc	8 1 98 0                # .\string.c:98:0
	mov	eax, dword ptr [rsp + 44]
	sar	eax, 4
	mov	dword ptr [rsp + 44], eax
	jmp	.LBB8_3
.Ltmp45:
.LBB8_6:
	.cv_loc	8 1 103 0               # .\string.c:103:0
	mov	rax, qword ptr [rsp + 96]
	movsxd	rcx, dword ptr [rsp + 40]
	mov	word ptr [rax + 2*rcx], 0
	.cv_loc	8 1 104 0               # .\string.c:104:0
	mov	rcx, qword ptr [rsp + 96]
	call	StringReverseW
	.cv_loc	8 1 105 0               # .\string.c:105:0
	nop
	add	rsp, 104
	ret
.Ltmp46:
.Lfunc_end8:
	.seh_handlerdata
	.text
	.seh_endproc
                                        # -- End function
	.def	 IntegerToHexW64;
	.scl	2;
	.type	32;
	.endef
	.globl	IntegerToHexW64         # -- Begin function IntegerToHexW64
	.p2align	4, 0x90
IntegerToHexW64:                        # @IntegerToHexW64
.Lfunc_begin9:
	.cv_func_id 9
	.cv_loc	9 1 108 0               # .\string.c:108:0
.seh_proc IntegerToHexW64
# %bb.0:
	sub	rsp, 104
	.seh_stackalloc 104
	.seh_endprologue
	mov	qword ptr [rsp + 96], rdx
	mov	qword ptr [rsp + 88], rcx
.Ltmp47:
	.cv_loc	9 1 109 0               # .\string.c:109:0
	mov	rax, qword ptr [rip + .L__const.IntegerToHexW64.hp]
	mov	qword ptr [rsp + 48], rax
	mov	rax, qword ptr [rip + .L__const.IntegerToHexW64.hp+8]
	mov	qword ptr [rsp + 56], rax
	mov	rax, qword ptr [rip + .L__const.IntegerToHexW64.hp+16]
	mov	qword ptr [rsp + 64], rax
	mov	rax, qword ptr [rip + .L__const.IntegerToHexW64.hp+24]
	mov	qword ptr [rsp + 72], rax
	.cv_loc	9 1 110 0               # .\string.c:110:0
	mov	rax, qword ptr [rsp + 88]
                                        # kill: def $eax killed $eax killed $rax
	mov	dword ptr [rsp + 44], eax
	.cv_loc	9 1 111 0               # .\string.c:111:0
	mov	dword ptr [rsp + 40], 0
	.cv_loc	9 1 112 0               # .\string.c:112:0
	cmp	dword ptr [rsp + 44], 0
	jne	.LBB9_2
# %bb.1:
.Ltmp48:
	.cv_loc	9 1 112 0               # .\string.c:112:0
	mov	ax, word ptr [rsp + 48]
	mov	rcx, qword ptr [rsp + 96]
	mov	edx, dword ptr [rsp + 40]
	mov	r8d, edx
	add	r8d, 1
	mov	dword ptr [rsp + 40], r8d
	movsxd	r9, edx
	mov	word ptr [rcx + 2*r9], ax
.Ltmp49:
.LBB9_2:
	.cv_loc	9 1 113 0               # .\string.c:113:0
	jmp	.LBB9_3
.LBB9_3:                                # =>This Inner Loop Header: Depth=1
.Ltmp50:
	.cv_loc	9 1 113 0               # .\string.c:113:0
	cmp	dword ptr [rsp + 44], 0
	je	.LBB9_6
# %bb.4:                                #   in Loop: Header=BB9_3 Depth=1
.Ltmp51:
	.cv_loc	9 1 115 0               # .\string.c:115:0
	mov	eax, dword ptr [rsp + 44]
	and	eax, 15
	mov	dword ptr [rsp + 36], eax
	.cv_loc	9 1 116 0               # .\string.c:116:0
	movsxd	rcx, dword ptr [rsp + 36]
	mov	dx, word ptr [rsp + 2*rcx + 48]
	mov	rcx, qword ptr [rsp + 96]
	mov	eax, dword ptr [rsp + 40]
	mov	r8d, eax
	add	r8d, 1
	mov	dword ptr [rsp + 40], r8d
	movsxd	r9, eax
	mov	word ptr [rcx + 2*r9], dx
.Ltmp52:
# %bb.5:                                #   in Loop: Header=BB9_3 Depth=1
	.cv_loc	9 1 113 0               # .\string.c:113:0
	mov	eax, dword ptr [rsp + 44]
	sar	eax, 4
	mov	dword ptr [rsp + 44], eax
	jmp	.LBB9_3
.Ltmp53:
.LBB9_6:
	.cv_loc	9 1 118 0               # .\string.c:118:0
	mov	rax, qword ptr [rsp + 96]
	movsxd	rcx, dword ptr [rsp + 40]
	mov	word ptr [rax + 2*rcx], 0
	.cv_loc	9 1 119 0               # .\string.c:119:0
	mov	rcx, qword ptr [rsp + 96]
	call	StringReverseW
	.cv_loc	9 1 120 0               # .\string.c:120:0
	nop
	add	rsp, 104
	ret
.Ltmp54:
.Lfunc_end9:
	.seh_handlerdata
	.text
	.seh_endproc
                                        # -- End function
	.def	 IntegerToHEXW;
	.scl	2;
	.type	32;
	.endef
	.globl	IntegerToHEXW           # -- Begin function IntegerToHEXW
	.p2align	4, 0x90
IntegerToHEXW:                          # @IntegerToHEXW
.Lfunc_begin10:
	.cv_func_id 10
	.cv_loc	10 1 123 0              # .\string.c:123:0
.seh_proc IntegerToHEXW
# %bb.0:
	sub	rsp, 104
	.seh_stackalloc 104
	.seh_endprologue
	mov	qword ptr [rsp + 96], rdx
	mov	dword ptr [rsp + 92], ecx
.Ltmp55:
	.cv_loc	10 1 124 0              # .\string.c:124:0
	mov	rax, qword ptr [rip + .L__const.IntegerToHEXW.hp]
	mov	qword ptr [rsp + 48], rax
	mov	rax, qword ptr [rip + .L__const.IntegerToHEXW.hp+8]
	mov	qword ptr [rsp + 56], rax
	mov	rax, qword ptr [rip + .L__const.IntegerToHEXW.hp+16]
	mov	qword ptr [rsp + 64], rax
	mov	rax, qword ptr [rip + .L__const.IntegerToHEXW.hp+24]
	mov	qword ptr [rsp + 72], rax
	.cv_loc	10 1 125 0              # .\string.c:125:0
	mov	ecx, dword ptr [rsp + 92]
	mov	dword ptr [rsp + 44], ecx
	.cv_loc	10 1 126 0              # .\string.c:126:0
	mov	dword ptr [rsp + 40], 0
	.cv_loc	10 1 127 0              # .\string.c:127:0
	cmp	dword ptr [rsp + 44], 0
	jne	.LBB10_2
# %bb.1:
.Ltmp56:
	.cv_loc	10 1 127 0              # .\string.c:127:0
	mov	ax, word ptr [rsp + 48]
	mov	rcx, qword ptr [rsp + 96]
	mov	edx, dword ptr [rsp + 40]
	mov	r8d, edx
	add	r8d, 1
	mov	dword ptr [rsp + 40], r8d
	movsxd	r9, edx
	mov	word ptr [rcx + 2*r9], ax
.Ltmp57:
.LBB10_2:
	.cv_loc	10 1 128 0              # .\string.c:128:0
	jmp	.LBB10_3
.LBB10_3:                               # =>This Inner Loop Header: Depth=1
.Ltmp58:
	.cv_loc	10 1 128 0              # .\string.c:128:0
	cmp	dword ptr [rsp + 44], 0
	je	.LBB10_6
# %bb.4:                                #   in Loop: Header=BB10_3 Depth=1
.Ltmp59:
	.cv_loc	10 1 130 0              # .\string.c:130:0
	mov	eax, dword ptr [rsp + 44]
	and	eax, 15
	mov	dword ptr [rsp + 36], eax
	.cv_loc	10 1 131 0              # .\string.c:131:0
	movsxd	rcx, dword ptr [rsp + 36]
	mov	dx, word ptr [rsp + 2*rcx + 48]
	mov	rcx, qword ptr [rsp + 96]
	mov	eax, dword ptr [rsp + 40]
	mov	r8d, eax
	add	r8d, 1
	mov	dword ptr [rsp + 40], r8d
	movsxd	r9, eax
	mov	word ptr [rcx + 2*r9], dx
.Ltmp60:
# %bb.5:                                #   in Loop: Header=BB10_3 Depth=1
	.cv_loc	10 1 128 0              # .\string.c:128:0
	mov	eax, dword ptr [rsp + 44]
	sar	eax, 4
	mov	dword ptr [rsp + 44], eax
	jmp	.LBB10_3
.Ltmp61:
.LBB10_6:
	.cv_loc	10 1 133 0              # .\string.c:133:0
	mov	rax, qword ptr [rsp + 96]
	movsxd	rcx, dword ptr [rsp + 40]
	mov	word ptr [rax + 2*rcx], 0
	.cv_loc	10 1 134 0              # .\string.c:134:0
	mov	rcx, qword ptr [rsp + 96]
	call	StringReverseW
	.cv_loc	10 1 135 0              # .\string.c:135:0
	nop
	add	rsp, 104
	ret
.Ltmp62:
.Lfunc_end10:
	.seh_handlerdata
	.text
	.seh_endproc
                                        # -- End function
	.def	 IntegerToHEXW64;
	.scl	2;
	.type	32;
	.endef
	.globl	IntegerToHEXW64         # -- Begin function IntegerToHEXW64
	.p2align	4, 0x90
IntegerToHEXW64:                        # @IntegerToHEXW64
.Lfunc_begin11:
	.cv_func_id 11
	.cv_loc	11 1 138 0              # .\string.c:138:0
.seh_proc IntegerToHEXW64
# %bb.0:
	sub	rsp, 104
	.seh_stackalloc 104
	.seh_endprologue
	mov	qword ptr [rsp + 96], rdx
	mov	qword ptr [rsp + 88], rcx
.Ltmp63:
	.cv_loc	11 1 139 0              # .\string.c:139:0
	mov	rax, qword ptr [rip + .L__const.IntegerToHEXW64.hp]
	mov	qword ptr [rsp + 48], rax
	mov	rax, qword ptr [rip + .L__const.IntegerToHEXW64.hp+8]
	mov	qword ptr [rsp + 56], rax
	mov	rax, qword ptr [rip + .L__const.IntegerToHEXW64.hp+16]
	mov	qword ptr [rsp + 64], rax
	mov	rax, qword ptr [rip + .L__const.IntegerToHEXW64.hp+24]
	mov	qword ptr [rsp + 72], rax
	.cv_loc	11 1 140 0              # .\string.c:140:0
	mov	rax, qword ptr [rsp + 88]
	mov	qword ptr [rsp + 40], rax
	.cv_loc	11 1 141 0              # .\string.c:141:0
	mov	dword ptr [rsp + 36], 0
	.cv_loc	11 1 142 0              # .\string.c:142:0
	cmp	qword ptr [rsp + 40], 0
	jne	.LBB11_2
# %bb.1:
.Ltmp64:
	.cv_loc	11 1 142 0              # .\string.c:142:0
	mov	ax, word ptr [rsp + 48]
	mov	rcx, qword ptr [rsp + 96]
	mov	edx, dword ptr [rsp + 36]
	mov	r8d, edx
	add	r8d, 1
	mov	dword ptr [rsp + 36], r8d
	movsxd	r9, edx
	mov	word ptr [rcx + 2*r9], ax
.Ltmp65:
.LBB11_2:
	.cv_loc	11 1 143 0              # .\string.c:143:0
	jmp	.LBB11_3
.LBB11_3:                               # =>This Inner Loop Header: Depth=1
.Ltmp66:
	.cv_loc	11 1 143 0              # .\string.c:143:0
	cmp	qword ptr [rsp + 40], 0
	je	.LBB11_6
# %bb.4:                                #   in Loop: Header=BB11_3 Depth=1
.Ltmp67:
	.cv_loc	11 1 145 0              # .\string.c:145:0
	mov	rax, qword ptr [rsp + 40]
	and	rax, 15
                                        # kill: def $eax killed $eax killed $rax
	mov	dword ptr [rsp + 32], eax
	.cv_loc	11 1 146 0              # .\string.c:146:0
	movsxd	rcx, dword ptr [rsp + 32]
	mov	dx, word ptr [rsp + 2*rcx + 48]
	mov	rcx, qword ptr [rsp + 96]
	mov	eax, dword ptr [rsp + 36]
	mov	r8d, eax
	add	r8d, 1
	mov	dword ptr [rsp + 36], r8d
	movsxd	r9, eax
	mov	word ptr [rcx + 2*r9], dx
.Ltmp68:
# %bb.5:                                #   in Loop: Header=BB11_3 Depth=1
	.cv_loc	11 1 143 0              # .\string.c:143:0
	mov	rax, qword ptr [rsp + 40]
	sar	rax, 4
	mov	qword ptr [rsp + 40], rax
	jmp	.LBB11_3
.Ltmp69:
.LBB11_6:
	.cv_loc	11 1 148 0              # .\string.c:148:0
	mov	rax, qword ptr [rsp + 96]
	movsxd	rcx, dword ptr [rsp + 36]
	mov	word ptr [rax + 2*rcx], 0
	.cv_loc	11 1 149 0              # .\string.c:149:0
	mov	rcx, qword ptr [rsp + 96]
	call	StringReverseW
	.cv_loc	11 1 150 0              # .\string.c:150:0
	nop
	add	rsp, 104
	ret
.Ltmp70:
.Lfunc_end11:
	.seh_handlerdata
	.text
	.seh_endproc
                                        # -- End function
	.section	.rdata,"dr"
	.p2align	4               # @__const.IntegerToHexW.hp
.L__const.IntegerToHexW.hp:
	.short	48                      # 0x30
	.short	49                      # 0x31
	.short	50                      # 0x32
	.short	51                      # 0x33
	.short	52                      # 0x34
	.short	53                      # 0x35
	.short	54                      # 0x36
	.short	55                      # 0x37
	.short	56                      # 0x38
	.short	57                      # 0x39
	.short	97                      # 0x61
	.short	98                      # 0x62
	.short	99                      # 0x63
	.short	100                     # 0x64
	.short	101                     # 0x65
	.short	102                     # 0x66

	.p2align	4               # @__const.IntegerToHexW64.hp
.L__const.IntegerToHexW64.hp:
	.short	48                      # 0x30
	.short	49                      # 0x31
	.short	50                      # 0x32
	.short	51                      # 0x33
	.short	52                      # 0x34
	.short	53                      # 0x35
	.short	54                      # 0x36
	.short	55                      # 0x37
	.short	56                      # 0x38
	.short	57                      # 0x39
	.short	97                      # 0x61
	.short	98                      # 0x62
	.short	99                      # 0x63
	.short	100                     # 0x64
	.short	101                     # 0x65
	.short	102                     # 0x66

	.p2align	4               # @__const.IntegerToHEXW.hp
.L__const.IntegerToHEXW.hp:
	.short	48                      # 0x30
	.short	49                      # 0x31
	.short	50                      # 0x32
	.short	51                      # 0x33
	.short	52                      # 0x34
	.short	53                      # 0x35
	.short	54                      # 0x36
	.short	55                      # 0x37
	.short	56                      # 0x38
	.short	57                      # 0x39
	.short	65                      # 0x41
	.short	66                      # 0x42
	.short	67                      # 0x43
	.short	68                      # 0x44
	.short	69                      # 0x45
	.short	70                      # 0x46

	.p2align	4               # @__const.IntegerToHEXW64.hp
.L__const.IntegerToHEXW64.hp:
	.short	48                      # 0x30
	.short	49                      # 0x31
	.short	50                      # 0x32
	.short	51                      # 0x33
	.short	52                      # 0x34
	.short	53                      # 0x35
	.short	54                      # 0x36
	.short	55                      # 0x37
	.short	56                      # 0x38
	.short	57                      # 0x39
	.short	65                      # 0x41
	.short	66                      # 0x42
	.short	67                      # 0x43
	.short	68                      # 0x44
	.short	69                      # 0x45
	.short	70                      # 0x46

	.section	.drectve,"yn"
	.ascii	" /DEFAULTLIB:libcmt.lib"
	.ascii	" /DEFAULTLIB:oldnames.lib"